

Microchip MPLAB XC8 Assembler V2.32 build 20210201212658 
                                                                                               Wed Oct 13 10:10:26 2021

Microchip MPLAB XC8 C Compiler v2.32 (Free license) build 20210201212658 Og1 
     1                           	processor	16F1705
     2                           	pagewidth 120
     3                           	opt	flic
     4                           	psect	idataBANK0,global,class=CODE,delta=2,noexec
     5                           	psect	nvBANK0,global,class=BANK0,space=1,delta=1,noexec
     6                           	psect	cinit,global,class=CODE,merge=1,delta=2
     7                           	psect	bssCOMMON,global,class=COMMON,space=1,delta=1,noexec
     8                           	psect	bssBANK0,global,class=BANK0,space=1,delta=1,noexec
     9                           	psect	dataBANK0,global,class=BANK0,space=1,delta=1,noexec
    10                           	psect	inittext,global,class=CODE,delta=2
    11                           	psect	cstackCOMMON,global,class=COMMON,space=1,delta=1,noexec
    12                           	psect	cstackBANK0,global,class=BANK0,space=1,delta=1,noexec
    13                           	psect	maintext,global,class=CODE,merge=1,split=1,delta=2
    14                           	psect	text1,local,class=CODE,merge=1,delta=2,group=2
    15                           	psect	text2,local,class=CODE,merge=1,delta=2,group=1
    16                           	psect	text3,local,class=CODE,merge=1,delta=2
    17                           	psect	text4,local,class=CODE,merge=1,delta=2
    18                           	psect	text5,local,class=CODE,merge=1,delta=2
    19                           	psect	text6,local,class=CODE,merge=1,delta=2
    20                           	psect	text7,local,class=CODE,merge=1,delta=2
    21                           	psect	text8,local,class=CODE,merge=1,delta=2
    22                           	psect	text9,local,class=CODE,merge=1,delta=2
    23                           	psect	text10,local,class=CODE,merge=1,delta=2
    24                           	psect	text11,local,class=CODE,merge=1,delta=2
    25                           	psect	text12,local,class=CODE,merge=1,delta=2
    26                           	psect	text13,local,class=CODE,merge=1,delta=2
    27                           	psect	text14,local,class=CODE,merge=1,delta=2
    28                           	psect	text15,local,class=CODE,merge=1,delta=2
    29                           	psect	intentry,global,class=CODE,delta=2
    30                           	psect	text17,local,class=CODE,merge=1,delta=2
    31                           	psect	text18,local,class=CODE,merge=1,delta=2
    32                           	psect	text19,local,class=CODE,merge=1,delta=2
    33                           	psect	text20,local,class=CODE,merge=1,delta=2
    34                           	psect	text21,local,class=CODE,merge=1,delta=2
    35                           	psect	text22,local,class=CODE,merge=1,delta=2
    36                           	psect	text23,local,class=CODE,merge=1,delta=2
    37                           	psect	text24,local,class=CODE,merge=1,delta=2
    38                           	psect	text25,local,class=CODE,merge=1,delta=2
    39                           	psect	text26,local,class=CODE,merge=1,delta=2
    40                           	psect	text27,local,class=CODE,merge=1,delta=2
    41                           	psect	text28,local,class=CODE,merge=1,delta=2
    42                           	psect	text29,local,class=CODE,merge=1,delta=2
    43                           	psect	text30,local,class=CODE,merge=1,delta=2
    44                           	psect	text31,local,class=CODE,merge=1,delta=2
    45                           	psect	text32,local,class=CODE,merge=1,delta=2
    46                           	psect	text33,local,class=CODE,merge=1,delta=2
    47                           	psect	text34,local,class=CODE,merge=1,delta=2
    48                           	psect	text35,local,class=CODE,merge=1,delta=2
    49                           	psect	config,global,abs,ovrld,class=CONFIG,space=4,delta=2,noexec
    50                           	dabs	1,0x7E,2
    51  0000                     
    52                           ; Version 2.20
    53                           ; Generated 12/02/2020 GMT
    54                           ; 
    55                           ; Copyright Â© 2020, Microchip Technology Inc. and its subsidiaries ("Microchip")
    56                           ; All rights reserved.
    57                           ; 
    58                           ; This software is developed by Microchip Technology Inc. and its subsidiaries ("Microch
      +                          ip").
    59                           ; 
    60                           ; Redistribution and use in source and binary forms, with or without modification, are
    61                           ; permitted provided that the following conditions are met:
    62                           ; 
    63                           ;     1. Redistributions of source code must retain the above copyright notice, this lis
      +                          t of
    64                           ;        conditions and the following disclaimer.
    65                           ; 
    66                           ;     2. Redistributions in binary form must reproduce the above copyright notice, this 
      +                          list
    67                           ;        of conditions and the following disclaimer in the documentation and/or other
    68                           ;        materials provided with the distribution.
    69                           ; 
    70                           ;     3. Microchip's name may not be used to endorse or promote products derived from th
      +                          is
    71                           ;        software without specific prior written permission.
    72                           ; 
    73                           ; THIS SOFTWARE IS PROVIDED BY MICROCHIP "AS IS" AND ANY EXPRESS OR IMPLIED WARRANTIES,
    74                           ; INCLUDING, BUT NOT LIMITED TO, THE IMPLIED WARRANTIES OF MERCHANTABILITY AND FITNESS F
      +                          OR
    75                           ; PURPOSE ARE DISCLAIMED.  IN NO EVENT SHALL MICROCHIP BE LIABLE FOR ANY DIRECT, INDIREC
      +                          T,
    76                           ; INCIDENTAL, SPECIAL, EXEMPLARY, OR CONSEQUENTIAL DAMAGES (INCLUDING BUT NOT LIMITED TO
    77                           ; PROCUREMENT OF SUBSTITUTE GOODS OR SERVICES; LOSS OF USE, DATA OR PROFITS; OR BUSINESS
    78                           ; INTERRUPTION) HOWSOEVER CAUSED AND ON ANY THEORY OF LIABILITY, WHETHER IN CONTRACT, ST
      +                          RICT
    79                           ; LIABILITY, OR TORT (INCLUDING NEGLIGENCE OR OTHERWISE) ARISING IN ANY WAY OUT OF THE U
      +                          SE OF
    80                           ; THIS SOFTWARE, EVEN IF ADVISED OF THE POSSIBILITY OF SUCH DAMAGE.
    81                           ; 
    82                           ; 
    83                           ; Code-generator required, PIC16F1705 Definitions
    84                           ; 
    85                           ; SFR Addresses
    86  0000                     	;# 
    87  0001                     	;# 
    88  0002                     	;# 
    89  0003                     	;# 
    90  0004                     	;# 
    91  0005                     	;# 
    92  0006                     	;# 
    93  0007                     	;# 
    94  0008                     	;# 
    95  0009                     	;# 
    96  000A                     	;# 
    97  000B                     	;# 
    98  000C                     	;# 
    99  000E                     	;# 
   100  0011                     	;# 
   101  0012                     	;# 
   102  0013                     	;# 
   103  0015                     	;# 
   104  0016                     	;# 
   105  0016                     	;# 
   106  0017                     	;# 
   107  0018                     	;# 
   108  0019                     	;# 
   109  001A                     	;# 
   110  001B                     	;# 
   111  001C                     	;# 
   112  008C                     	;# 
   113  008E                     	;# 
   114  0091                     	;# 
   115  0092                     	;# 
   116  0093                     	;# 
   117  0095                     	;# 
   118  0096                     	;# 
   119  0097                     	;# 
   120  0098                     	;# 
   121  0099                     	;# 
   122  009A                     	;# 
   123  009B                     	;# 
   124  009B                     	;# 
   125  009C                     	;# 
   126  009D                     	;# 
   127  009E                     	;# 
   128  009F                     	;# 
   129  010C                     	;# 
   130  010E                     	;# 
   131  0111                     	;# 
   132  0112                     	;# 
   133  0113                     	;# 
   134  0114                     	;# 
   135  0115                     	;# 
   136  0116                     	;# 
   137  0117                     	;# 
   138  0118                     	;# 
   139  0119                     	;# 
   140  011C                     	;# 
   141  018C                     	;# 
   142  018E                     	;# 
   143  0191                     	;# 
   144  0191                     	;# 
   145  0192                     	;# 
   146  0193                     	;# 
   147  0193                     	;# 
   148  0194                     	;# 
   149  0195                     	;# 
   150  0196                     	;# 
   151  0197                     	;# 
   152  0199                     	;# 
   153  0199                     	;# 
   154  0199                     	;# 
   155  019A                     	;# 
   156  019A                     	;# 
   157  019A                     	;# 
   158  019B                     	;# 
   159  019B                     	;# 
   160  019B                     	;# 
   161  019B                     	;# 
   162  019B                     	;# 
   163  019C                     	;# 
   164  019C                     	;# 
   165  019C                     	;# 
   166  019D                     	;# 
   167  019D                     	;# 
   168  019D                     	;# 
   169  019E                     	;# 
   170  019E                     	;# 
   171  019E                     	;# 
   172  019F                     	;# 
   173  019F                     	;# 
   174  019F                     	;# 
   175  019F                     	;# 
   176  019F                     	;# 
   177  020C                     	;# 
   178  020E                     	;# 
   179  0211                     	;# 
   180  0211                     	;# 
   181  0212                     	;# 
   182  0212                     	;# 
   183  0213                     	;# 
   184  0213                     	;# 
   185  0214                     	;# 
   186  0214                     	;# 
   187  0215                     	;# 
   188  0215                     	;# 
   189  0215                     	;# 
   190  0215                     	;# 
   191  0216                     	;# 
   192  0216                     	;# 
   193  0217                     	;# 
   194  0217                     	;# 
   195  028C                     	;# 
   196  028E                     	;# 
   197  0291                     	;# 
   198  0291                     	;# 
   199  0292                     	;# 
   200  0293                     	;# 
   201  0293                     	;# 
   202  0298                     	;# 
   203  0298                     	;# 
   204  0299                     	;# 
   205  029A                     	;# 
   206  029A                     	;# 
   207  029E                     	;# 
   208  030C                     	;# 
   209  030E                     	;# 
   210  038C                     	;# 
   211  038E                     	;# 
   212  0391                     	;# 
   213  0392                     	;# 
   214  0393                     	;# 
   215  0397                     	;# 
   216  0398                     	;# 
   217  0399                     	;# 
   218  0415                     	;# 
   219  0416                     	;# 
   220  0417                     	;# 
   221  041C                     	;# 
   222  041D                     	;# 
   223  041E                     	;# 
   224  0511                     	;# 
   225  0515                     	;# 
   226  0617                     	;# 
   227  0618                     	;# 
   228  0619                     	;# 
   229  0619                     	;# 
   230  061A                     	;# 
   231  061B                     	;# 
   232  061C                     	;# 
   233  061C                     	;# 
   234  0691                     	;# 
   235  0692                     	;# 
   236  0693                     	;# 
   237  0694                     	;# 
   238  0695                     	;# 
   239  0696                     	;# 
   240  0697                     	;# 
   241  0698                     	;# 
   242  0699                     	;# 
   243  069A                     	;# 
   244  069B                     	;# 
   245  069C                     	;# 
   246  069D                     	;# 
   247  069E                     	;# 
   248  069F                     	;# 
   249  0E0F                     	;# 
   250  0E10                     	;# 
   251  0E11                     	;# 
   252  0E12                     	;# 
   253  0E13                     	;# 
   254  0E14                     	;# 
   255  0E15                     	;# 
   256  0E17                     	;# 
   257  0E20                     	;# 
   258  0E21                     	;# 
   259  0E22                     	;# 
   260  0E24                     	;# 
   261  0E25                     	;# 
   262  0E28                     	;# 
   263  0E29                     	;# 
   264  0E2A                     	;# 
   265  0E2B                     	;# 
   266  0E90                     	;# 
   267  0E91                     	;# 
   268  0E92                     	;# 
   269  0E94                     	;# 
   270  0E95                     	;# 
   271  0EA0                     	;# 
   272  0EA1                     	;# 
   273  0EA2                     	;# 
   274  0EA3                     	;# 
   275  0EA4                     	;# 
   276  0EA5                     	;# 
   277  0F0F                     	;# 
   278  0F10                     	;# 
   279  0F11                     	;# 
   280  0F12                     	;# 
   281  0F13                     	;# 
   282  0F14                     	;# 
   283  0F15                     	;# 
   284  0F16                     	;# 
   285  0F17                     	;# 
   286  0F18                     	;# 
   287  0F19                     	;# 
   288  0F1A                     	;# 
   289  0F1B                     	;# 
   290  0F1C                     	;# 
   291  0F1D                     	;# 
   292  0F1E                     	;# 
   293  0F1F                     	;# 
   294  0F20                     	;# 
   295  0F21                     	;# 
   296  0F22                     	;# 
   297  0F23                     	;# 
   298  0F24                     	;# 
   299  0F25                     	;# 
   300  0F26                     	;# 
   301  0F27                     	;# 
   302  0F28                     	;# 
   303  0F29                     	;# 
   304  0F2A                     	;# 
   305  0F2B                     	;# 
   306  0F2C                     	;# 
   307  0F2D                     	;# 
   308  0F9E                     	;# 
   309  0FE4                     	;# 
   310  0FE5                     	;# 
   311  0FE6                     	;# 
   312  0FE7                     	;# 
   313  0FE8                     	;# 
   314  0FE9                     	;# 
   315  0FEA                     	;# 
   316  0FEB                     	;# 
   317  0FED                     	;# 
   318  0FEE                     	;# 
   319  0FEF                     	;# 
   320  0000                     	;# 
   321  0001                     	;# 
   322  0002                     	;# 
   323  0003                     	;# 
   324  0004                     	;# 
   325  0005                     	;# 
   326  0006                     	;# 
   327  0007                     	;# 
   328  0008                     	;# 
   329  0009                     	;# 
   330  000A                     	;# 
   331  000B                     	;# 
   332  000C                     	;# 
   333  000E                     	;# 
   334  0011                     	;# 
   335  0012                     	;# 
   336  0013                     	;# 
   337  0015                     	;# 
   338  0016                     	;# 
   339  0016                     	;# 
   340  0017                     	;# 
   341  0018                     	;# 
   342  0019                     	;# 
   343  001A                     	;# 
   344  001B                     	;# 
   345  001C                     	;# 
   346  008C                     	;# 
   347  008E                     	;# 
   348  0091                     	;# 
   349  0092                     	;# 
   350  0093                     	;# 
   351  0095                     	;# 
   352  0096                     	;# 
   353  0097                     	;# 
   354  0098                     	;# 
   355  0099                     	;# 
   356  009A                     	;# 
   357  009B                     	;# 
   358  009B                     	;# 
   359  009C                     	;# 
   360  009D                     	;# 
   361  009E                     	;# 
   362  009F                     	;# 
   363  010C                     	;# 
   364  010E                     	;# 
   365  0111                     	;# 
   366  0112                     	;# 
   367  0113                     	;# 
   368  0114                     	;# 
   369  0115                     	;# 
   370  0116                     	;# 
   371  0117                     	;# 
   372  0118                     	;# 
   373  0119                     	;# 
   374  011C                     	;# 
   375  018C                     	;# 
   376  018E                     	;# 
   377  0191                     	;# 
   378  0191                     	;# 
   379  0192                     	;# 
   380  0193                     	;# 
   381  0193                     	;# 
   382  0194                     	;# 
   383  0195                     	;# 
   384  0196                     	;# 
   385  0197                     	;# 
   386  0199                     	;# 
   387  0199                     	;# 
   388  0199                     	;# 
   389  019A                     	;# 
   390  019A                     	;# 
   391  019A                     	;# 
   392  019B                     	;# 
   393  019B                     	;# 
   394  019B                     	;# 
   395  019B                     	;# 
   396  019B                     	;# 
   397  019C                     	;# 
   398  019C                     	;# 
   399  019C                     	;# 
   400  019D                     	;# 
   401  019D                     	;# 
   402  019D                     	;# 
   403  019E                     	;# 
   404  019E                     	;# 
   405  019E                     	;# 
   406  019F                     	;# 
   407  019F                     	;# 
   408  019F                     	;# 
   409  019F                     	;# 
   410  019F                     	;# 
   411  020C                     	;# 
   412  020E                     	;# 
   413  0211                     	;# 
   414  0211                     	;# 
   415  0212                     	;# 
   416  0212                     	;# 
   417  0213                     	;# 
   418  0213                     	;# 
   419  0214                     	;# 
   420  0214                     	;# 
   421  0215                     	;# 
   422  0215                     	;# 
   423  0215                     	;# 
   424  0215                     	;# 
   425  0216                     	;# 
   426  0216                     	;# 
   427  0217                     	;# 
   428  0217                     	;# 
   429  028C                     	;# 
   430  028E                     	;# 
   431  0291                     	;# 
   432  0291                     	;# 
   433  0292                     	;# 
   434  0293                     	;# 
   435  0293                     	;# 
   436  0298                     	;# 
   437  0298                     	;# 
   438  0299                     	;# 
   439  029A                     	;# 
   440  029A                     	;# 
   441  029E                     	;# 
   442  030C                     	;# 
   443  030E                     	;# 
   444  038C                     	;# 
   445  038E                     	;# 
   446  0391                     	;# 
   447  0392                     	;# 
   448  0393                     	;# 
   449  0397                     	;# 
   450  0398                     	;# 
   451  0399                     	;# 
   452  0415                     	;# 
   453  0416                     	;# 
   454  0417                     	;# 
   455  041C                     	;# 
   456  041D                     	;# 
   457  041E                     	;# 
   458  0511                     	;# 
   459  0515                     	;# 
   460  0617                     	;# 
   461  0618                     	;# 
   462  0619                     	;# 
   463  0619                     	;# 
   464  061A                     	;# 
   465  061B                     	;# 
   466  061C                     	;# 
   467  061C                     	;# 
   468  0691                     	;# 
   469  0692                     	;# 
   470  0693                     	;# 
   471  0694                     	;# 
   472  0695                     	;# 
   473  0696                     	;# 
   474  0697                     	;# 
   475  0698                     	;# 
   476  0699                     	;# 
   477  069A                     	;# 
   478  069B                     	;# 
   479  069C                     	;# 
   480  069D                     	;# 
   481  069E                     	;# 
   482  069F                     	;# 
   483  0E0F                     	;# 
   484  0E10                     	;# 
   485  0E11                     	;# 
   486  0E12                     	;# 
   487  0E13                     	;# 
   488  0E14                     	;# 
   489  0E15                     	;# 
   490  0E17                     	;# 
   491  0E20                     	;# 
   492  0E21                     	;# 
   493  0E22                     	;# 
   494  0E24                     	;# 
   495  0E25                     	;# 
   496  0E28                     	;# 
   497  0E29                     	;# 
   498  0E2A                     	;# 
   499  0E2B                     	;# 
   500  0E90                     	;# 
   501  0E91                     	;# 
   502  0E92                     	;# 
   503  0E94                     	;# 
   504  0E95                     	;# 
   505  0EA0                     	;# 
   506  0EA1                     	;# 
   507  0EA2                     	;# 
   508  0EA3                     	;# 
   509  0EA4                     	;# 
   510  0EA5                     	;# 
   511  0F0F                     	;# 
   512  0F10                     	;# 
   513  0F11                     	;# 
   514  0F12                     	;# 
   515  0F13                     	;# 
   516  0F14                     	;# 
   517  0F15                     	;# 
   518  0F16                     	;# 
   519  0F17                     	;# 
   520  0F18                     	;# 
   521  0F19                     	;# 
   522  0F1A                     	;# 
   523  0F1B                     	;# 
   524  0F1C                     	;# 
   525  0F1D                     	;# 
   526  0F1E                     	;# 
   527  0F1F                     	;# 
   528  0F20                     	;# 
   529  0F21                     	;# 
   530  0F22                     	;# 
   531  0F23                     	;# 
   532  0F24                     	;# 
   533  0F25                     	;# 
   534  0F26                     	;# 
   535  0F27                     	;# 
   536  0F28                     	;# 
   537  0F29                     	;# 
   538  0F2A                     	;# 
   539  0F2B                     	;# 
   540  0F2C                     	;# 
   541  0F2D                     	;# 
   542  0F9E                     	;# 
   543  0FE4                     	;# 
   544  0FE5                     	;# 
   545  0FE6                     	;# 
   546  0FE7                     	;# 
   547  0FE8                     	;# 
   548  0FE9                     	;# 
   549  0FEA                     	;# 
   550  0FEB                     	;# 
   551  0FED                     	;# 
   552  0FEE                     	;# 
   553  0FEF                     	;# 
   554  0000                     	;# 
   555  0001                     	;# 
   556  0002                     	;# 
   557  0003                     	;# 
   558  0004                     	;# 
   559  0005                     	;# 
   560  0006                     	;# 
   561  0007                     	;# 
   562  0008                     	;# 
   563  0009                     	;# 
   564  000A                     	;# 
   565  000B                     	;# 
   566  000C                     	;# 
   567  000E                     	;# 
   568  0011                     	;# 
   569  0012                     	;# 
   570  0013                     	;# 
   571  0015                     	;# 
   572  0016                     	;# 
   573  0016                     	;# 
   574  0017                     	;# 
   575  0018                     	;# 
   576  0019                     	;# 
   577  001A                     	;# 
   578  001B                     	;# 
   579  001C                     	;# 
   580  008C                     	;# 
   581  008E                     	;# 
   582  0091                     	;# 
   583  0092                     	;# 
   584  0093                     	;# 
   585  0095                     	;# 
   586  0096                     	;# 
   587  0097                     	;# 
   588  0098                     	;# 
   589  0099                     	;# 
   590  009A                     	;# 
   591  009B                     	;# 
   592  009B                     	;# 
   593  009C                     	;# 
   594  009D                     	;# 
   595  009E                     	;# 
   596  009F                     	;# 
   597  010C                     	;# 
   598  010E                     	;# 
   599  0111                     	;# 
   600  0112                     	;# 
   601  0113                     	;# 
   602  0114                     	;# 
   603  0115                     	;# 
   604  0116                     	;# 
   605  0117                     	;# 
   606  0118                     	;# 
   607  0119                     	;# 
   608  011C                     	;# 
   609  018C                     	;# 
   610  018E                     	;# 
   611  0191                     	;# 
   612  0191                     	;# 
   613  0192                     	;# 
   614  0193                     	;# 
   615  0193                     	;# 
   616  0194                     	;# 
   617  0195                     	;# 
   618  0196                     	;# 
   619  0197                     	;# 
   620  0199                     	;# 
   621  0199                     	;# 
   622  0199                     	;# 
   623  019A                     	;# 
   624  019A                     	;# 
   625  019A                     	;# 
   626  019B                     	;# 
   627  019B                     	;# 
   628  019B                     	;# 
   629  019B                     	;# 
   630  019B                     	;# 
   631  019C                     	;# 
   632  019C                     	;# 
   633  019C                     	;# 
   634  019D                     	;# 
   635  019D                     	;# 
   636  019D                     	;# 
   637  019E                     	;# 
   638  019E                     	;# 
   639  019E                     	;# 
   640  019F                     	;# 
   641  019F                     	;# 
   642  019F                     	;# 
   643  019F                     	;# 
   644  019F                     	;# 
   645  020C                     	;# 
   646  020E                     	;# 
   647  0211                     	;# 
   648  0211                     	;# 
   649  0212                     	;# 
   650  0212                     	;# 
   651  0213                     	;# 
   652  0213                     	;# 
   653  0214                     	;# 
   654  0214                     	;# 
   655  0215                     	;# 
   656  0215                     	;# 
   657  0215                     	;# 
   658  0215                     	;# 
   659  0216                     	;# 
   660  0216                     	;# 
   661  0217                     	;# 
   662  0217                     	;# 
   663  028C                     	;# 
   664  028E                     	;# 
   665  0291                     	;# 
   666  0291                     	;# 
   667  0292                     	;# 
   668  0293                     	;# 
   669  0293                     	;# 
   670  0298                     	;# 
   671  0298                     	;# 
   672  0299                     	;# 
   673  029A                     	;# 
   674  029A                     	;# 
   675  029E                     	;# 
   676  030C                     	;# 
   677  030E                     	;# 
   678  038C                     	;# 
   679  038E                     	;# 
   680  0391                     	;# 
   681  0392                     	;# 
   682  0393                     	;# 
   683  0397                     	;# 
   684  0398                     	;# 
   685  0399                     	;# 
   686  0415                     	;# 
   687  0416                     	;# 
   688  0417                     	;# 
   689  041C                     	;# 
   690  041D                     	;# 
   691  041E                     	;# 
   692  0511                     	;# 
   693  0515                     	;# 
   694  0617                     	;# 
   695  0618                     	;# 
   696  0619                     	;# 
   697  0619                     	;# 
   698  061A                     	;# 
   699  061B                     	;# 
   700  061C                     	;# 
   701  061C                     	;# 
   702  0691                     	;# 
   703  0692                     	;# 
   704  0693                     	;# 
   705  0694                     	;# 
   706  0695                     	;# 
   707  0696                     	;# 
   708  0697                     	;# 
   709  0698                     	;# 
   710  0699                     	;# 
   711  069A                     	;# 
   712  069B                     	;# 
   713  069C                     	;# 
   714  069D                     	;# 
   715  069E                     	;# 
   716  069F                     	;# 
   717  0E0F                     	;# 
   718  0E10                     	;# 
   719  0E11                     	;# 
   720  0E12                     	;# 
   721  0E13                     	;# 
   722  0E14                     	;# 
   723  0E15                     	;# 
   724  0E17                     	;# 
   725  0E20                     	;# 
   726  0E21                     	;# 
   727  0E22                     	;# 
   728  0E24                     	;# 
   729  0E25                     	;# 
   730  0E28                     	;# 
   731  0E29                     	;# 
   732  0E2A                     	;# 
   733  0E2B                     	;# 
   734  0E90                     	;# 
   735  0E91                     	;# 
   736  0E92                     	;# 
   737  0E94                     	;# 
   738  0E95                     	;# 
   739  0EA0                     	;# 
   740  0EA1                     	;# 
   741  0EA2                     	;# 
   742  0EA3                     	;# 
   743  0EA4                     	;# 
   744  0EA5                     	;# 
   745  0F0F                     	;# 
   746  0F10                     	;# 
   747  0F11                     	;# 
   748  0F12                     	;# 
   749  0F13                     	;# 
   750  0F14                     	;# 
   751  0F15                     	;# 
   752  0F16                     	;# 
   753  0F17                     	;# 
   754  0F18                     	;# 
   755  0F19                     	;# 
   756  0F1A                     	;# 
   757  0F1B                     	;# 
   758  0F1C                     	;# 
   759  0F1D                     	;# 
   760  0F1E                     	;# 
   761  0F1F                     	;# 
   762  0F20                     	;# 
   763  0F21                     	;# 
   764  0F22                     	;# 
   765  0F23                     	;# 
   766  0F24                     	;# 
   767  0F25                     	;# 
   768  0F26                     	;# 
   769  0F27                     	;# 
   770  0F28                     	;# 
   771  0F29                     	;# 
   772  0F2A                     	;# 
   773  0F2B                     	;# 
   774  0F2C                     	;# 
   775  0F2D                     	;# 
   776  0F9E                     	;# 
   777  0FE4                     	;# 
   778  0FE5                     	;# 
   779  0FE6                     	;# 
   780  0FE7                     	;# 
   781  0FE8                     	;# 
   782  0FE9                     	;# 
   783  0FEA                     	;# 
   784  0FEB                     	;# 
   785  0FED                     	;# 
   786  0FEE                     	;# 
   787  0FEF                     	;# 
   788  0000                     	;# 
   789  0001                     	;# 
   790  0002                     	;# 
   791  0003                     	;# 
   792  0004                     	;# 
   793  0005                     	;# 
   794  0006                     	;# 
   795  0007                     	;# 
   796  0008                     	;# 
   797  0009                     	;# 
   798  000A                     	;# 
   799  000B                     	;# 
   800  000C                     	;# 
   801  000E                     	;# 
   802  0011                     	;# 
   803  0012                     	;# 
   804  0013                     	;# 
   805  0015                     	;# 
   806  0016                     	;# 
   807  0016                     	;# 
   808  0017                     	;# 
   809  0018                     	;# 
   810  0019                     	;# 
   811  001A                     	;# 
   812  001B                     	;# 
   813  001C                     	;# 
   814  008C                     	;# 
   815  008E                     	;# 
   816  0091                     	;# 
   817  0092                     	;# 
   818  0093                     	;# 
   819  0095                     	;# 
   820  0096                     	;# 
   821  0097                     	;# 
   822  0098                     	;# 
   823  0099                     	;# 
   824  009A                     	;# 
   825  009B                     	;# 
   826  009B                     	;# 
   827  009C                     	;# 
   828  009D                     	;# 
   829  009E                     	;# 
   830  009F                     	;# 
   831  010C                     	;# 
   832  010E                     	;# 
   833  0111                     	;# 
   834  0112                     	;# 
   835  0113                     	;# 
   836  0114                     	;# 
   837  0115                     	;# 
   838  0116                     	;# 
   839  0117                     	;# 
   840  0118                     	;# 
   841  0119                     	;# 
   842  011C                     	;# 
   843  018C                     	;# 
   844  018E                     	;# 
   845  0191                     	;# 
   846  0191                     	;# 
   847  0192                     	;# 
   848  0193                     	;# 
   849  0193                     	;# 
   850  0194                     	;# 
   851  0195                     	;# 
   852  0196                     	;# 
   853  0197                     	;# 
   854  0199                     	;# 
   855  0199                     	;# 
   856  0199                     	;# 
   857  019A                     	;# 
   858  019A                     	;# 
   859  019A                     	;# 
   860  019B                     	;# 
   861  019B                     	;# 
   862  019B                     	;# 
   863  019B                     	;# 
   864  019B                     	;# 
   865  019C                     	;# 
   866  019C                     	;# 
   867  019C                     	;# 
   868  019D                     	;# 
   869  019D                     	;# 
   870  019D                     	;# 
   871  019E                     	;# 
   872  019E                     	;# 
   873  019E                     	;# 
   874  019F                     	;# 
   875  019F                     	;# 
   876  019F                     	;# 
   877  019F                     	;# 
   878  019F                     	;# 
   879  020C                     	;# 
   880  020E                     	;# 
   881  0211                     	;# 
   882  0211                     	;# 
   883  0212                     	;# 
   884  0212                     	;# 
   885  0213                     	;# 
   886  0213                     	;# 
   887  0214                     	;# 
   888  0214                     	;# 
   889  0215                     	;# 
   890  0215                     	;# 
   891  0215                     	;# 
   892  0215                     	;# 
   893  0216                     	;# 
   894  0216                     	;# 
   895  0217                     	;# 
   896  0217                     	;# 
   897  028C                     	;# 
   898  028E                     	;# 
   899  0291                     	;# 
   900  0291                     	;# 
   901  0292                     	;# 
   902  0293                     	;# 
   903  0293                     	;# 
   904  0298                     	;# 
   905  0298                     	;# 
   906  0299                     	;# 
   907  029A                     	;# 
   908  029A                     	;# 
   909  029E                     	;# 
   910  030C                     	;# 
   911  030E                     	;# 
   912  038C                     	;# 
   913  038E                     	;# 
   914  0391                     	;# 
   915  0392                     	;# 
   916  0393                     	;# 
   917  0397                     	;# 
   918  0398                     	;# 
   919  0399                     	;# 
   920  0415                     	;# 
   921  0416                     	;# 
   922  0417                     	;# 
   923  041C                     	;# 
   924  041D                     	;# 
   925  041E                     	;# 
   926  0511                     	;# 
   927  0515                     	;# 
   928  0617                     	;# 
   929  0618                     	;# 
   930  0619                     	;# 
   931  0619                     	;# 
   932  061A                     	;# 
   933  061B                     	;# 
   934  061C                     	;# 
   935  061C                     	;# 
   936  0691                     	;# 
   937  0692                     	;# 
   938  0693                     	;# 
   939  0694                     	;# 
   940  0695                     	;# 
   941  0696                     	;# 
   942  0697                     	;# 
   943  0698                     	;# 
   944  0699                     	;# 
   945  069A                     	;# 
   946  069B                     	;# 
   947  069C                     	;# 
   948  069D                     	;# 
   949  069E                     	;# 
   950  069F                     	;# 
   951  0E0F                     	;# 
   952  0E10                     	;# 
   953  0E11                     	;# 
   954  0E12                     	;# 
   955  0E13                     	;# 
   956  0E14                     	;# 
   957  0E15                     	;# 
   958  0E17                     	;# 
   959  0E20                     	;# 
   960  0E21                     	;# 
   961  0E22                     	;# 
   962  0E24                     	;# 
   963  0E25                     	;# 
   964  0E28                     	;# 
   965  0E29                     	;# 
   966  0E2A                     	;# 
   967  0E2B                     	;# 
   968  0E90                     	;# 
   969  0E91                     	;# 
   970  0E92                     	;# 
   971  0E94                     	;# 
   972  0E95                     	;# 
   973  0EA0                     	;# 
   974  0EA1                     	;# 
   975  0EA2                     	;# 
   976  0EA3                     	;# 
   977  0EA4                     	;# 
   978  0EA5                     	;# 
   979  0F0F                     	;# 
   980  0F10                     	;# 
   981  0F11                     	;# 
   982  0F12                     	;# 
   983  0F13                     	;# 
   984  0F14                     	;# 
   985  0F15                     	;# 
   986  0F16                     	;# 
   987  0F17                     	;# 
   988  0F18                     	;# 
   989  0F19                     	;# 
   990  0F1A                     	;# 
   991  0F1B                     	;# 
   992  0F1C                     	;# 
   993  0F1D                     	;# 
   994  0F1E                     	;# 
   995  0F1F                     	;# 
   996  0F20                     	;# 
   997  0F21                     	;# 
   998  0F22                     	;# 
   999  0F23                     	;# 
  1000  0F24                     	;# 
  1001  0F25                     	;# 
  1002  0F26                     	;# 
  1003  0F27                     	;# 
  1004  0F28                     	;# 
  1005  0F29                     	;# 
  1006  0F2A                     	;# 
  1007  0F2B                     	;# 
  1008  0F2C                     	;# 
  1009  0F2D                     	;# 
  1010  0F9E                     	;# 
  1011  0FE4                     	;# 
  1012  0FE5                     	;# 
  1013  0FE6                     	;# 
  1014  0FE7                     	;# 
  1015  0FE8                     	;# 
  1016  0FE9                     	;# 
  1017  0FEA                     	;# 
  1018  0FEB                     	;# 
  1019  0FED                     	;# 
  1020  0FEE                     	;# 
  1021  0FEF                     	;# 
  1022  0000                     	;# 
  1023  0001                     	;# 
  1024  0002                     	;# 
  1025  0003                     	;# 
  1026  0004                     	;# 
  1027  0005                     	;# 
  1028  0006                     	;# 
  1029  0007                     	;# 
  1030  0008                     	;# 
  1031  0009                     	;# 
  1032  000A                     	;# 
  1033  000B                     	;# 
  1034  000C                     	;# 
  1035  000E                     	;# 
  1036  0011                     	;# 
  1037  0012                     	;# 
  1038  0013                     	;# 
  1039  0015                     	;# 
  1040  0016                     	;# 
  1041  0016                     	;# 
  1042  0017                     	;# 
  1043  0018                     	;# 
  1044  0019                     	;# 
  1045  001A                     	;# 
  1046  001B                     	;# 
  1047  001C                     	;# 
  1048  008C                     	;# 
  1049  008E                     	;# 
  1050  0091                     	;# 
  1051  0092                     	;# 
  1052  0093                     	;# 
  1053  0095                     	;# 
  1054  0096                     	;# 
  1055  0097                     	;# 
  1056  0098                     	;# 
  1057  0099                     	;# 
  1058  009A                     	;# 
  1059  009B                     	;# 
  1060  009B                     	;# 
  1061  009C                     	;# 
  1062  009D                     	;# 
  1063  009E                     	;# 
  1064  009F                     	;# 
  1065  010C                     	;# 
  1066  010E                     	;# 
  1067  0111                     	;# 
  1068  0112                     	;# 
  1069  0113                     	;# 
  1070  0114                     	;# 
  1071  0115                     	;# 
  1072  0116                     	;# 
  1073  0117                     	;# 
  1074  0118                     	;# 
  1075  0119                     	;# 
  1076  011C                     	;# 
  1077  018C                     	;# 
  1078  018E                     	;# 
  1079  0191                     	;# 
  1080  0191                     	;# 
  1081  0192                     	;# 
  1082  0193                     	;# 
  1083  0193                     	;# 
  1084  0194                     	;# 
  1085  0195                     	;# 
  1086  0196                     	;# 
  1087  0197                     	;# 
  1088  0199                     	;# 
  1089  0199                     	;# 
  1090  0199                     	;# 
  1091  019A                     	;# 
  1092  019A                     	;# 
  1093  019A                     	;# 
  1094  019B                     	;# 
  1095  019B                     	;# 
  1096  019B                     	;# 
  1097  019B                     	;# 
  1098  019B                     	;# 
  1099  019C                     	;# 
  1100  019C                     	;# 
  1101  019C                     	;# 
  1102  019D                     	;# 
  1103  019D                     	;# 
  1104  019D                     	;# 
  1105  019E                     	;# 
  1106  019E                     	;# 
  1107  019E                     	;# 
  1108  019F                     	;# 
  1109  019F                     	;# 
  1110  019F                     	;# 
  1111  019F                     	;# 
  1112  019F                     	;# 
  1113  020C                     	;# 
  1114  020E                     	;# 
  1115  0211                     	;# 
  1116  0211                     	;# 
  1117  0212                     	;# 
  1118  0212                     	;# 
  1119  0213                     	;# 
  1120  0213                     	;# 
  1121  0214                     	;# 
  1122  0214                     	;# 
  1123  0215                     	;# 
  1124  0215                     	;# 
  1125  0215                     	;# 
  1126  0215                     	;# 
  1127  0216                     	;# 
  1128  0216                     	;# 
  1129  0217                     	;# 
  1130  0217                     	;# 
  1131  028C                     	;# 
  1132  028E                     	;# 
  1133  0291                     	;# 
  1134  0291                     	;# 
  1135  0292                     	;# 
  1136  0293                     	;# 
  1137  0293                     	;# 
  1138  0298                     	;# 
  1139  0298                     	;# 
  1140  0299                     	;# 
  1141  029A                     	;# 
  1142  029A                     	;# 
  1143  029E                     	;# 
  1144  030C                     	;# 
  1145  030E                     	;# 
  1146  038C                     	;# 
  1147  038E                     	;# 
  1148  0391                     	;# 
  1149  0392                     	;# 
  1150  0393                     	;# 
  1151  0397                     	;# 
  1152  0398                     	;# 
  1153  0399                     	;# 
  1154  0415                     	;# 
  1155  0416                     	;# 
  1156  0417                     	;# 
  1157  041C                     	;# 
  1158  041D                     	;# 
  1159  041E                     	;# 
  1160  0511                     	;# 
  1161  0515                     	;# 
  1162  0617                     	;# 
  1163  0618                     	;# 
  1164  0619                     	;# 
  1165  0619                     	;# 
  1166  061A                     	;# 
  1167  061B                     	;# 
  1168  061C                     	;# 
  1169  061C                     	;# 
  1170  0691                     	;# 
  1171  0692                     	;# 
  1172  0693                     	;# 
  1173  0694                     	;# 
  1174  0695                     	;# 
  1175  0696                     	;# 
  1176  0697                     	;# 
  1177  0698                     	;# 
  1178  0699                     	;# 
  1179  069A                     	;# 
  1180  069B                     	;# 
  1181  069C                     	;# 
  1182  069D                     	;# 
  1183  069E                     	;# 
  1184  069F                     	;# 
  1185  0E0F                     	;# 
  1186  0E10                     	;# 
  1187  0E11                     	;# 
  1188  0E12                     	;# 
  1189  0E13                     	;# 
  1190  0E14                     	;# 
  1191  0E15                     	;# 
  1192  0E17                     	;# 
  1193  0E20                     	;# 
  1194  0E21                     	;# 
  1195  0E22                     	;# 
  1196  0E24                     	;# 
  1197  0E25                     	;# 
  1198  0E28                     	;# 
  1199  0E29                     	;# 
  1200  0E2A                     	;# 
  1201  0E2B                     	;# 
  1202  0E90                     	;# 
  1203  0E91                     	;# 
  1204  0E92                     	;# 
  1205  0E94                     	;# 
  1206  0E95                     	;# 
  1207  0EA0                     	;# 
  1208  0EA1                     	;# 
  1209  0EA2                     	;# 
  1210  0EA3                     	;# 
  1211  0EA4                     	;# 
  1212  0EA5                     	;# 
  1213  0F0F                     	;# 
  1214  0F10                     	;# 
  1215  0F11                     	;# 
  1216  0F12                     	;# 
  1217  0F13                     	;# 
  1218  0F14                     	;# 
  1219  0F15                     	;# 
  1220  0F16                     	;# 
  1221  0F17                     	;# 
  1222  0F18                     	;# 
  1223  0F19                     	;# 
  1224  0F1A                     	;# 
  1225  0F1B                     	;# 
  1226  0F1C                     	;# 
  1227  0F1D                     	;# 
  1228  0F1E                     	;# 
  1229  0F1F                     	;# 
  1230  0F20                     	;# 
  1231  0F21                     	;# 
  1232  0F22                     	;# 
  1233  0F23                     	;# 
  1234  0F24                     	;# 
  1235  0F25                     	;# 
  1236  0F26                     	;# 
  1237  0F27                     	;# 
  1238  0F28                     	;# 
  1239  0F29                     	;# 
  1240  0F2A                     	;# 
  1241  0F2B                     	;# 
  1242  0F2C                     	;# 
  1243  0F2D                     	;# 
  1244  0F9E                     	;# 
  1245  0FE4                     	;# 
  1246  0FE5                     	;# 
  1247  0FE6                     	;# 
  1248  0FE7                     	;# 
  1249  0FE8                     	;# 
  1250  0FE9                     	;# 
  1251  0FEA                     	;# 
  1252  0FEB                     	;# 
  1253  0FED                     	;# 
  1254  0FEE                     	;# 
  1255  0FEF                     	;# 
  1256  0000                     	;# 
  1257  0001                     	;# 
  1258  0002                     	;# 
  1259  0003                     	;# 
  1260  0004                     	;# 
  1261  0005                     	;# 
  1262  0006                     	;# 
  1263  0007                     	;# 
  1264  0008                     	;# 
  1265  0009                     	;# 
  1266  000A                     	;# 
  1267  000B                     	;# 
  1268  000C                     	;# 
  1269  000E                     	;# 
  1270  0011                     	;# 
  1271  0012                     	;# 
  1272  0013                     	;# 
  1273  0015                     	;# 
  1274  0016                     	;# 
  1275  0016                     	;# 
  1276  0017                     	;# 
  1277  0018                     	;# 
  1278  0019                     	;# 
  1279  001A                     	;# 
  1280  001B                     	;# 
  1281  001C                     	;# 
  1282  008C                     	;# 
  1283  008E                     	;# 
  1284  0091                     	;# 
  1285  0092                     	;# 
  1286  0093                     	;# 
  1287  0095                     	;# 
  1288  0096                     	;# 
  1289  0097                     	;# 
  1290  0098                     	;# 
  1291  0099                     	;# 
  1292  009A                     	;# 
  1293  009B                     	;# 
  1294  009B                     	;# 
  1295  009C                     	;# 
  1296  009D                     	;# 
  1297  009E                     	;# 
  1298  009F                     	;# 
  1299  010C                     	;# 
  1300  010E                     	;# 
  1301  0111                     	;# 
  1302  0112                     	;# 
  1303  0113                     	;# 
  1304  0114                     	;# 
  1305  0115                     	;# 
  1306  0116                     	;# 
  1307  0117                     	;# 
  1308  0118                     	;# 
  1309  0119                     	;# 
  1310  011C                     	;# 
  1311  018C                     	;# 
  1312  018E                     	;# 
  1313  0191                     	;# 
  1314  0191                     	;# 
  1315  0192                     	;# 
  1316  0193                     	;# 
  1317  0193                     	;# 
  1318  0194                     	;# 
  1319  0195                     	;# 
  1320  0196                     	;# 
  1321  0197                     	;# 
  1322  0199                     	;# 
  1323  0199                     	;# 
  1324  0199                     	;# 
  1325  019A                     	;# 
  1326  019A                     	;# 
  1327  019A                     	;# 
  1328  019B                     	;# 
  1329  019B                     	;# 
  1330  019B                     	;# 
  1331  019B                     	;# 
  1332  019B                     	;# 
  1333  019C                     	;# 
  1334  019C                     	;# 
  1335  019C                     	;# 
  1336  019D                     	;# 
  1337  019D                     	;# 
  1338  019D                     	;# 
  1339  019E                     	;# 
  1340  019E                     	;# 
  1341  019E                     	;# 
  1342  019F                     	;# 
  1343  019F                     	;# 
  1344  019F                     	;# 
  1345  019F                     	;# 
  1346  019F                     	;# 
  1347  020C                     	;# 
  1348  020E                     	;# 
  1349  0211                     	;# 
  1350  0211                     	;# 
  1351  0212                     	;# 
  1352  0212                     	;# 
  1353  0213                     	;# 
  1354  0213                     	;# 
  1355  0214                     	;# 
  1356  0214                     	;# 
  1357  0215                     	;# 
  1358  0215                     	;# 
  1359  0215                     	;# 
  1360  0215                     	;# 
  1361  0216                     	;# 
  1362  0216                     	;# 
  1363  0217                     	;# 
  1364  0217                     	;# 
  1365  028C                     	;# 
  1366  028E                     	;# 
  1367  0291                     	;# 
  1368  0291                     	;# 
  1369  0292                     	;# 
  1370  0293                     	;# 
  1371  0293                     	;# 
  1372  0298                     	;# 
  1373  0298                     	;# 
  1374  0299                     	;# 
  1375  029A                     	;# 
  1376  029A                     	;# 
  1377  029E                     	;# 
  1378  030C                     	;# 
  1379  030E                     	;# 
  1380  038C                     	;# 
  1381  038E                     	;# 
  1382  0391                     	;# 
  1383  0392                     	;# 
  1384  0393                     	;# 
  1385  0397                     	;# 
  1386  0398                     	;# 
  1387  0399                     	;# 
  1388  0415                     	;# 
  1389  0416                     	;# 
  1390  0417                     	;# 
  1391  041C                     	;# 
  1392  041D                     	;# 
  1393  041E                     	;# 
  1394  0511                     	;# 
  1395  0515                     	;# 
  1396  0617                     	;# 
  1397  0618                     	;# 
  1398  0619                     	;# 
  1399  0619                     	;# 
  1400  061A                     	;# 
  1401  061B                     	;# 
  1402  061C                     	;# 
  1403  061C                     	;# 
  1404  0691                     	;# 
  1405  0692                     	;# 
  1406  0693                     	;# 
  1407  0694                     	;# 
  1408  0695                     	;# 
  1409  0696                     	;# 
  1410  0697                     	;# 
  1411  0698                     	;# 
  1412  0699                     	;# 
  1413  069A                     	;# 
  1414  069B                     	;# 
  1415  069C                     	;# 
  1416  069D                     	;# 
  1417  069E                     	;# 
  1418  069F                     	;# 
  1419  0E0F                     	;# 
  1420  0E10                     	;# 
  1421  0E11                     	;# 
  1422  0E12                     	;# 
  1423  0E13                     	;# 
  1424  0E14                     	;# 
  1425  0E15                     	;# 
  1426  0E17                     	;# 
  1427  0E20                     	;# 
  1428  0E21                     	;# 
  1429  0E22                     	;# 
  1430  0E24                     	;# 
  1431  0E25                     	;# 
  1432  0E28                     	;# 
  1433  0E29                     	;# 
  1434  0E2A                     	;# 
  1435  0E2B                     	;# 
  1436  0E90                     	;# 
  1437  0E91                     	;# 
  1438  0E92                     	;# 
  1439  0E94                     	;# 
  1440  0E95                     	;# 
  1441  0EA0                     	;# 
  1442  0EA1                     	;# 
  1443  0EA2                     	;# 
  1444  0EA3                     	;# 
  1445  0EA4                     	;# 
  1446  0EA5                     	;# 
  1447  0F0F                     	;# 
  1448  0F10                     	;# 
  1449  0F11                     	;# 
  1450  0F12                     	;# 
  1451  0F13                     	;# 
  1452  0F14                     	;# 
  1453  0F15                     	;# 
  1454  0F16                     	;# 
  1455  0F17                     	;# 
  1456  0F18                     	;# 
  1457  0F19                     	;# 
  1458  0F1A                     	;# 
  1459  0F1B                     	;# 
  1460  0F1C                     	;# 
  1461  0F1D                     	;# 
  1462  0F1E                     	;# 
  1463  0F1F                     	;# 
  1464  0F20                     	;# 
  1465  0F21                     	;# 
  1466  0F22                     	;# 
  1467  0F23                     	;# 
  1468  0F24                     	;# 
  1469  0F25                     	;# 
  1470  0F26                     	;# 
  1471  0F27                     	;# 
  1472  0F28                     	;# 
  1473  0F29                     	;# 
  1474  0F2A                     	;# 
  1475  0F2B                     	;# 
  1476  0F2C                     	;# 
  1477  0F2D                     	;# 
  1478  0F9E                     	;# 
  1479  0FE4                     	;# 
  1480  0FE5                     	;# 
  1481  0FE6                     	;# 
  1482  0FE7                     	;# 
  1483  0FE8                     	;# 
  1484  0FE9                     	;# 
  1485  0FEA                     	;# 
  1486  0FEB                     	;# 
  1487  0FED                     	;# 
  1488  0FEE                     	;# 
  1489  0FEF                     	;# 
  1490  0000                     	;# 
  1491  0001                     	;# 
  1492  0002                     	;# 
  1493  0003                     	;# 
  1494  0004                     	;# 
  1495  0005                     	;# 
  1496  0006                     	;# 
  1497  0007                     	;# 
  1498  0008                     	;# 
  1499  0009                     	;# 
  1500  000A                     	;# 
  1501  000B                     	;# 
  1502  000C                     	;# 
  1503  000E                     	;# 
  1504  0011                     	;# 
  1505  0012                     	;# 
  1506  0013                     	;# 
  1507  0015                     	;# 
  1508  0016                     	;# 
  1509  0016                     	;# 
  1510  0017                     	;# 
  1511  0018                     	;# 
  1512  0019                     	;# 
  1513  001A                     	;# 
  1514  001B                     	;# 
  1515  001C                     	;# 
  1516  008C                     	;# 
  1517  008E                     	;# 
  1518  0091                     	;# 
  1519  0092                     	;# 
  1520  0093                     	;# 
  1521  0095                     	;# 
  1522  0096                     	;# 
  1523  0097                     	;# 
  1524  0098                     	;# 
  1525  0099                     	;# 
  1526  009A                     	;# 
  1527  009B                     	;# 
  1528  009B                     	;# 
  1529  009C                     	;# 
  1530  009D                     	;# 
  1531  009E                     	;# 
  1532  009F                     	;# 
  1533  010C                     	;# 
  1534  010E                     	;# 
  1535  0111                     	;# 
  1536  0112                     	;# 
  1537  0113                     	;# 
  1538  0114                     	;# 
  1539  0115                     	;# 
  1540  0116                     	;# 
  1541  0117                     	;# 
  1542  0118                     	;# 
  1543  0119                     	;# 
  1544  011C                     	;# 
  1545  018C                     	;# 
  1546  018E                     	;# 
  1547  0191                     	;# 
  1548  0191                     	;# 
  1549  0192                     	;# 
  1550  0193                     	;# 
  1551  0193                     	;# 
  1552  0194                     	;# 
  1553  0195                     	;# 
  1554  0196                     	;# 
  1555  0197                     	;# 
  1556  0199                     	;# 
  1557  0199                     	;# 
  1558  0199                     	;# 
  1559  019A                     	;# 
  1560  019A                     	;# 
  1561  019A                     	;# 
  1562  019B                     	;# 
  1563  019B                     	;# 
  1564  019B                     	;# 
  1565  019B                     	;# 
  1566  019B                     	;# 
  1567  019C                     	;# 
  1568  019C                     	;# 
  1569  019C                     	;# 
  1570  019D                     	;# 
  1571  019D                     	;# 
  1572  019D                     	;# 
  1573  019E                     	;# 
  1574  019E                     	;# 
  1575  019E                     	;# 
  1576  019F                     	;# 
  1577  019F                     	;# 
  1578  019F                     	;# 
  1579  019F                     	;# 
  1580  019F                     	;# 
  1581  020C                     	;# 
  1582  020E                     	;# 
  1583  0211                     	;# 
  1584  0211                     	;# 
  1585  0212                     	;# 
  1586  0212                     	;# 
  1587  0213                     	;# 
  1588  0213                     	;# 
  1589  0214                     	;# 
  1590  0214                     	;# 
  1591  0215                     	;# 
  1592  0215                     	;# 
  1593  0215                     	;# 
  1594  0215                     	;# 
  1595  0216                     	;# 
  1596  0216                     	;# 
  1597  0217                     	;# 
  1598  0217                     	;# 
  1599  028C                     	;# 
  1600  028E                     	;# 
  1601  0291                     	;# 
  1602  0291                     	;# 
  1603  0292                     	;# 
  1604  0293                     	;# 
  1605  0293                     	;# 
  1606  0298                     	;# 
  1607  0298                     	;# 
  1608  0299                     	;# 
  1609  029A                     	;# 
  1610  029A                     	;# 
  1611  029E                     	;# 
  1612  030C                     	;# 
  1613  030E                     	;# 
  1614  038C                     	;# 
  1615  038E                     	;# 
  1616  0391                     	;# 
  1617  0392                     	;# 
  1618  0393                     	;# 
  1619  0397                     	;# 
  1620  0398                     	;# 
  1621  0399                     	;# 
  1622  0415                     	;# 
  1623  0416                     	;# 
  1624  0417                     	;# 
  1625  041C                     	;# 
  1626  041D                     	;# 
  1627  041E                     	;# 
  1628  0511                     	;# 
  1629  0515                     	;# 
  1630  0617                     	;# 
  1631  0618                     	;# 
  1632  0619                     	;# 
  1633  0619                     	;# 
  1634  061A                     	;# 
  1635  061B                     	;# 
  1636  061C                     	;# 
  1637  061C                     	;# 
  1638  0691                     	;# 
  1639  0692                     	;# 
  1640  0693                     	;# 
  1641  0694                     	;# 
  1642  0695                     	;# 
  1643  0696                     	;# 
  1644  0697                     	;# 
  1645  0698                     	;# 
  1646  0699                     	;# 
  1647  069A                     	;# 
  1648  069B                     	;# 
  1649  069C                     	;# 
  1650  069D                     	;# 
  1651  069E                     	;# 
  1652  069F                     	;# 
  1653  0E0F                     	;# 
  1654  0E10                     	;# 
  1655  0E11                     	;# 
  1656  0E12                     	;# 
  1657  0E13                     	;# 
  1658  0E14                     	;# 
  1659  0E15                     	;# 
  1660  0E17                     	;# 
  1661  0E20                     	;# 
  1662  0E21                     	;# 
  1663  0E22                     	;# 
  1664  0E24                     	;# 
  1665  0E25                     	;# 
  1666  0E28                     	;# 
  1667  0E29                     	;# 
  1668  0E2A                     	;# 
  1669  0E2B                     	;# 
  1670  0E90                     	;# 
  1671  0E91                     	;# 
  1672  0E92                     	;# 
  1673  0E94                     	;# 
  1674  0E95                     	;# 
  1675  0EA0                     	;# 
  1676  0EA1                     	;# 
  1677  0EA2                     	;# 
  1678  0EA3                     	;# 
  1679  0EA4                     	;# 
  1680  0EA5                     	;# 
  1681  0F0F                     	;# 
  1682  0F10                     	;# 
  1683  0F11                     	;# 
  1684  0F12                     	;# 
  1685  0F13                     	;# 
  1686  0F14                     	;# 
  1687  0F15                     	;# 
  1688  0F16                     	;# 
  1689  0F17                     	;# 
  1690  0F18                     	;# 
  1691  0F19                     	;# 
  1692  0F1A                     	;# 
  1693  0F1B                     	;# 
  1694  0F1C                     	;# 
  1695  0F1D                     	;# 
  1696  0F1E                     	;# 
  1697  0F1F                     	;# 
  1698  0F20                     	;# 
  1699  0F21                     	;# 
  1700  0F22                     	;# 
  1701  0F23                     	;# 
  1702  0F24                     	;# 
  1703  0F25                     	;# 
  1704  0F26                     	;# 
  1705  0F27                     	;# 
  1706  0F28                     	;# 
  1707  0F29                     	;# 
  1708  0F2A                     	;# 
  1709  0F2B                     	;# 
  1710  0F2C                     	;# 
  1711  0F2D                     	;# 
  1712  0F9E                     	;# 
  1713  0FE4                     	;# 
  1714  0FE5                     	;# 
  1715  0FE6                     	;# 
  1716  0FE7                     	;# 
  1717  0FE8                     	;# 
  1718  0FE9                     	;# 
  1719  0FEA                     	;# 
  1720  0FEB                     	;# 
  1721  0FED                     	;# 
  1722  0FEE                     	;# 
  1723  0FEF                     	;# 
  1724  0000                     	;# 
  1725  0001                     	;# 
  1726  0002                     	;# 
  1727  0003                     	;# 
  1728  0004                     	;# 
  1729  0005                     	;# 
  1730  0006                     	;# 
  1731  0007                     	;# 
  1732  0008                     	;# 
  1733  0009                     	;# 
  1734  000A                     	;# 
  1735  000B                     	;# 
  1736  000C                     	;# 
  1737  000E                     	;# 
  1738  0011                     	;# 
  1739  0012                     	;# 
  1740  0013                     	;# 
  1741  0015                     	;# 
  1742  0016                     	;# 
  1743  0016                     	;# 
  1744  0017                     	;# 
  1745  0018                     	;# 
  1746  0019                     	;# 
  1747  001A                     	;# 
  1748  001B                     	;# 
  1749  001C                     	;# 
  1750  008C                     	;# 
  1751  008E                     	;# 
  1752  0091                     	;# 
  1753  0092                     	;# 
  1754  0093                     	;# 
  1755  0095                     	;# 
  1756  0096                     	;# 
  1757  0097                     	;# 
  1758  0098                     	;# 
  1759  0099                     	;# 
  1760  009A                     	;# 
  1761  009B                     	;# 
  1762  009B                     	;# 
  1763  009C                     	;# 
  1764  009D                     	;# 
  1765  009E                     	;# 
  1766  009F                     	;# 
  1767  010C                     	;# 
  1768  010E                     	;# 
  1769  0111                     	;# 
  1770  0112                     	;# 
  1771  0113                     	;# 
  1772  0114                     	;# 
  1773  0115                     	;# 
  1774  0116                     	;# 
  1775  0117                     	;# 
  1776  0118                     	;# 
  1777  0119                     	;# 
  1778  011C                     	;# 
  1779  018C                     	;# 
  1780  018E                     	;# 
  1781  0191                     	;# 
  1782  0191                     	;# 
  1783  0192                     	;# 
  1784  0193                     	;# 
  1785  0193                     	;# 
  1786  0194                     	;# 
  1787  0195                     	;# 
  1788  0196                     	;# 
  1789  0197                     	;# 
  1790  0199                     	;# 
  1791  0199                     	;# 
  1792  0199                     	;# 
  1793  019A                     	;# 
  1794  019A                     	;# 
  1795  019A                     	;# 
  1796  019B                     	;# 
  1797  019B                     	;# 
  1798  019B                     	;# 
  1799  019B                     	;# 
  1800  019B                     	;# 
  1801  019C                     	;# 
  1802  019C                     	;# 
  1803  019C                     	;# 
  1804  019D                     	;# 
  1805  019D                     	;# 
  1806  019D                     	;# 
  1807  019E                     	;# 
  1808  019E                     	;# 
  1809  019E                     	;# 
  1810  019F                     	;# 
  1811  019F                     	;# 
  1812  019F                     	;# 
  1813  019F                     	;# 
  1814  019F                     	;# 
  1815  020C                     	;# 
  1816  020E                     	;# 
  1817  0211                     	;# 
  1818  0211                     	;# 
  1819  0212                     	;# 
  1820  0212                     	;# 
  1821  0213                     	;# 
  1822  0213                     	;# 
  1823  0214                     	;# 
  1824  0214                     	;# 
  1825  0215                     	;# 
  1826  0215                     	;# 
  1827  0215                     	;# 
  1828  0215                     	;# 
  1829  0216                     	;# 
  1830  0216                     	;# 
  1831  0217                     	;# 
  1832  0217                     	;# 
  1833  028C                     	;# 
  1834  028E                     	;# 
  1835  0291                     	;# 
  1836  0291                     	;# 
  1837  0292                     	;# 
  1838  0293                     	;# 
  1839  0293                     	;# 
  1840  0298                     	;# 
  1841  0298                     	;# 
  1842  0299                     	;# 
  1843  029A                     	;# 
  1844  029A                     	;# 
  1845  029E                     	;# 
  1846  030C                     	;# 
  1847  030E                     	;# 
  1848  038C                     	;# 
  1849  038E                     	;# 
  1850  0391                     	;# 
  1851  0392                     	;# 
  1852  0393                     	;# 
  1853  0397                     	;# 
  1854  0398                     	;# 
  1855  0399                     	;# 
  1856  0415                     	;# 
  1857  0416                     	;# 
  1858  0417                     	;# 
  1859  041C                     	;# 
  1860  041D                     	;# 
  1861  041E                     	;# 
  1862  0511                     	;# 
  1863  0515                     	;# 
  1864  0617                     	;# 
  1865  0618                     	;# 
  1866  0619                     	;# 
  1867  0619                     	;# 
  1868  061A                     	;# 
  1869  061B                     	;# 
  1870  061C                     	;# 
  1871  061C                     	;# 
  1872  0691                     	;# 
  1873  0692                     	;# 
  1874  0693                     	;# 
  1875  0694                     	;# 
  1876  0695                     	;# 
  1877  0696                     	;# 
  1878  0697                     	;# 
  1879  0698                     	;# 
  1880  0699                     	;# 
  1881  069A                     	;# 
  1882  069B                     	;# 
  1883  069C                     	;# 
  1884  069D                     	;# 
  1885  069E                     	;# 
  1886  069F                     	;# 
  1887  0E0F                     	;# 
  1888  0E10                     	;# 
  1889  0E11                     	;# 
  1890  0E12                     	;# 
  1891  0E13                     	;# 
  1892  0E14                     	;# 
  1893  0E15                     	;# 
  1894  0E17                     	;# 
  1895  0E20                     	;# 
  1896  0E21                     	;# 
  1897  0E22                     	;# 
  1898  0E24                     	;# 
  1899  0E25                     	;# 
  1900  0E28                     	;# 
  1901  0E29                     	;# 
  1902  0E2A                     	;# 
  1903  0E2B                     	;# 
  1904  0E90                     	;# 
  1905  0E91                     	;# 
  1906  0E92                     	;# 
  1907  0E94                     	;# 
  1908  0E95                     	;# 
  1909  0EA0                     	;# 
  1910  0EA1                     	;# 
  1911  0EA2                     	;# 
  1912  0EA3                     	;# 
  1913  0EA4                     	;# 
  1914  0EA5                     	;# 
  1915  0F0F                     	;# 
  1916  0F10                     	;# 
  1917  0F11                     	;# 
  1918  0F12                     	;# 
  1919  0F13                     	;# 
  1920  0F14                     	;# 
  1921  0F15                     	;# 
  1922  0F16                     	;# 
  1923  0F17                     	;# 
  1924  0F18                     	;# 
  1925  0F19                     	;# 
  1926  0F1A                     	;# 
  1927  0F1B                     	;# 
  1928  0F1C                     	;# 
  1929  0F1D                     	;# 
  1930  0F1E                     	;# 
  1931  0F1F                     	;# 
  1932  0F20                     	;# 
  1933  0F21                     	;# 
  1934  0F22                     	;# 
  1935  0F23                     	;# 
  1936  0F24                     	;# 
  1937  0F25                     	;# 
  1938  0F26                     	;# 
  1939  0F27                     	;# 
  1940  0F28                     	;# 
  1941  0F29                     	;# 
  1942  0F2A                     	;# 
  1943  0F2B                     	;# 
  1944  0F2C                     	;# 
  1945  0F2D                     	;# 
  1946  0F9E                     	;# 
  1947  0FE4                     	;# 
  1948  0FE5                     	;# 
  1949  0FE6                     	;# 
  1950  0FE7                     	;# 
  1951  0FE8                     	;# 
  1952  0FE9                     	;# 
  1953  0FEA                     	;# 
  1954  0FEB                     	;# 
  1955  0FED                     	;# 
  1956  0FEE                     	;# 
  1957  0FEF                     	;# 
  1958                           
  1959                           	psect	idataBANK0
  1960  0482                     __pidataBANK0:
  1961                           
  1962                           ;initializer for _AlienAbduction
  1963  0482  34C3               	retlw	195
  1964  0483  34CA               	retlw	202
  1965  0484  34FF               	retlw	255
  1966  0485  34F9               	retlw	249
  1967                           
  1968                           ;initializer for _RapidFire
  1969  0486  3443               	retlw	67
  1970  0487  3427               	retlw	39
  1971  0488  34C3               	retlw	195
  1972  0489  34CA               	retlw	202
  1973                           
  1974                           ;initializer for _AlienCreep
  1975  048A  3400               	retlw	0
  1976  048B  3400               	retlw	0
  1977  048C  3443               	retlw	67
  1978  048D  3427               	retlw	39
  1979                           
  1980                           ;initializer for _RingSetting
  1981  048E  3411               	retlw	17
  1982                           
  1983                           	psect	nvBANK0
  1984  0041                     __pnvBANK0:
  1985  0041                     _x:
  1986  0041                     	ds	2
  1987  0043                     _TMR2_InterruptHandler:
  1988  0043                     	ds	2
  1989  0045                     _TMR1_InterruptHandler:
  1990  0045                     	ds	2
  1991  0047                     _timer1ReloadVal:
  1992  0047                     	ds	2
  1993  000E                     _PORTCbits	set	14
  1994  000B                     _INTCONbits	set	11
  1995  001C                     _T2CONbits	set	28
  1996  001C                     _T2CON	set	28
  1997  001A                     _TMR2	set	26
  1998  001B                     _PR2	set	27
  1999  0019                     _T1GCONbits	set	25
  2000  0018                     _T1CONbits	set	24
  2001  0018                     _T1CON	set	24
  2002  0011                     _PIR1bits	set	17
  2003  0016                     _TMR1L	set	22
  2004  0017                     _TMR1H	set	23
  2005  0019                     _T1GCON	set	25
  2006  008E                     _TRISCbits	set	142
  2007  0095                     _OPTION_REGbits	set	149
  2008  008E                     _TRISC	set	142
  2009  008C                     _TRISA	set	140
  2010  0097                     _WDTCON	set	151
  2011  0098                     _OSCTUNE	set	152
  2012  009A                     _OSCSTAT	set	154
  2013  0099                     _OSCCON	set	153
  2014  0091                     _PIE1bits	set	145
  2015  010C                     _LATAbits	set	268
  2016  010E                     _LATCbits	set	270
  2017  010E                     _LATC	set	270
  2018  010C                     _LATA	set	268
  2019  0116                     _BORCON	set	278
  2020  0119                     _DAC1CON1	set	281
  2021  0118                     _DAC1CON0	set	280
  2022  018C                     _ANSELA	set	396
  2023  018E                     _ANSELC	set	398
  2024  020E                     _WPUC	set	526
  2025  020C                     _WPUA	set	524
  2026  028E                     _ODCONC	set	654
  2027  028C                     _ODCONA	set	652
  2028  030E                     _SLRCONC	set	782
  2029  030C                     _SLRCONA	set	780
  2030  038E                     _INLVLC	set	910
  2031  038C                     _INLVLA	set	908
  2032                           
  2033                           	psect	cinit
  2034  002A                     start_initialization:	
  2035                           ; #config settings
  2036                           
  2037  002A                     __initialization:
  2038                           
  2039                           ; Initialize objects allocated to BANK0
  2040  002A  3082               	movlw	low __pidataBANK0
  2041  002B  0084               	movwf	4
  2042  002C  3084               	movlw	(high __pidataBANK0)| (0+128)
  2043  002D  0085               	movwf	5
  2044  002E  3034               	movlw	low __pdataBANK0
  2045  002F  0086               	movwf	6
  2046  0030  3000               	movlw	high __pdataBANK0
  2047  0031  0087               	movwf	7
  2048  0032  300D               	movlw	13
  2049  0033  3184  24E8  3180   	fcall	init_ram
  2050                           
  2051                           ; Clear objects allocated to COMMON
  2052  0036  01F9               	clrf	__pbssCOMMON& (0+127)
  2053  0037  01FA               	clrf	(__pbssCOMMON+1)& (0+127)
  2054  0038  01FB               	clrf	(__pbssCOMMON+2)& (0+127)
  2055  0039  01FC               	clrf	(__pbssCOMMON+3)& (0+127)
  2056                           
  2057                           ; Clear objects allocated to BANK0
  2058  003A  01C9               	clrf	__pbssBANK0& (0+127)
  2059  003B  01CA               	clrf	(__pbssBANK0+1)& (0+127)
  2060  003C  01CB               	clrf	(__pbssBANK0+2)& (0+127)
  2061  003D  01CC               	clrf	(__pbssBANK0+3)& (0+127)
  2062  003E  01CD               	clrf	(__pbssBANK0+4)& (0+127)
  2063  003F  01CE               	clrf	(__pbssBANK0+5)& (0+127)
  2064  0040                     end_of_initialization:	
  2065                           ;End of C runtime variable initialization code
  2066                           
  2067  0040                     __end_of__initialization:
  2068  0040  107E               	bcf	int$flags,0	;clear compiler interrupt flag (level 1)
  2069  0041  0020               	movlb	0
  2070  0042  3180  2844         	ljmp	_main	;jump to C main() function
  2071                           
  2072                           	psect	bssCOMMON
  2073  0079                     __pbssCOMMON:
  2074  0079                     _AudioAddress:
  2075  0079                     	ds	2
  2076  007B                     _AudioActive:
  2077  007B                     	ds	1
  2078  007C                     _Audio:
  2079  007C                     	ds	1
  2080                           
  2081                           	psect	bssBANK0
  2082  0049                     __pbssBANK0:
  2083  0049                     _AudioEndAddress:
  2084  0049                     	ds	2
  2085  004B                     _seed:
  2086  004B                     	ds	4
  2087                           
  2088                           	psect	dataBANK0
  2089  0034                     __pdataBANK0:
  2090  0034                     _AlienAbduction:
  2091  0034                     	ds	4
  2092  0038                     _RapidFire:
  2093  0038                     	ds	4
  2094  003C                     _AlienCreep:
  2095  003C                     	ds	4
  2096  0040                     _RingSetting:
  2097  0040                     	ds	1
  2098                           
  2099                           	psect	inittext
  2100  04E8                     init_ram:
  2101  04E8  00FE               	movwf	btemp
  2102  04E9                     initloop:
  2103  04E9  0012               	moviw fsr0++
  2104  04EA  001E               	movwi fsr1++
  2105  04EB  0BFE               	decfsz	btemp,f
  2106  04EC  2CE9               	goto	initloop
  2107  04ED  3400               	retlw	0
  2108                           
  2109                           	psect	cstackCOMMON
  2110  0070                     __pcstackCOMMON:
  2111  0070                     ?_TMR1_DefaultInterruptHandler:
  2112  0070                     ??_TMR1_DefaultInterruptHandler:	
  2113                           ; 1 bytes @ 0x0
  2114                           
  2115  0070                     ?_TMR2_DefaultInterruptHandler:	
  2116                           ; 1 bytes @ 0x0
  2117                           
  2118  0070                     ??_TMR2_DefaultInterruptHandler:	
  2119                           ; 1 bytes @ 0x0
  2120                           
  2121  0070                     ?_PIN_MANAGER_Initialize:	
  2122                           ; 1 bytes @ 0x0
  2123                           
  2124  0070                     ?_OSCILLATOR_Initialize:	
  2125                           ; 1 bytes @ 0x0
  2126                           
  2127  0070                     ?_WDT_Initialize:	
  2128                           ; 1 bytes @ 0x0
  2129                           
  2130  0070                     ?_i2c_start:	
  2131                           ; 1 bytes @ 0x0
  2132                           
  2133  0070                     ??_i2c_start:	
  2134                           ; 1 bytes @ 0x0
  2135                           
  2136  0070                     ?_i2c_out_byte:	
  2137                           ; 1 bytes @ 0x0
  2138                           
  2139  0070                     ??_i2c_out_byte:	
  2140                           ; 1 bytes @ 0x0
  2141                           
  2142  0070                     ?_i2c_nack:	
  2143                           ; 1 bytes @ 0x0
  2144                           
  2145  0070                     ??_i2c_nack:	
  2146                           ; 1 bytes @ 0x0
  2147                           
  2148  0070                     ?_i2c_in_byte:	
  2149                           ; 1 bytes @ 0x0
  2150                           
  2151  0070                     ??_i2c_in_byte:	
  2152                           ; 1 bytes @ 0x0
  2153                           
  2154  0070                     ?_i2c_ack:	
  2155                           ; 1 bytes @ 0x0
  2156                           
  2157  0070                     ??_i2c_ack:	
  2158                           ; 1 bytes @ 0x0
  2159                           
  2160  0070                     ?_i2c_stop:	
  2161                           ; 1 bytes @ 0x0
  2162                           
  2163  0070                     ??_i2c_stop:	
  2164                           ; 1 bytes @ 0x0
  2165                           
  2166  0070                     ?_i2c_high_sda:	
  2167                           ; 1 bytes @ 0x0
  2168                           
  2169  0070                     ??_i2c_high_sda:	
  2170                           ; 1 bytes @ 0x0
  2171                           
  2172  0070                     ?_i2c_high_scl:	
  2173                           ; 1 bytes @ 0x0
  2174                           
  2175  0070                     ??_i2c_high_scl:	
  2176                           ; 1 bytes @ 0x0
  2177                           
  2178  0070                     ?_i2c_low_scl:	
  2179                           ; 1 bytes @ 0x0
  2180                           
  2181  0070                     ??_i2c_low_scl:	
  2182                           ; 1 bytes @ 0x0
  2183                           
  2184  0070                     ?_i2c_low_sda:	
  2185                           ; 1 bytes @ 0x0
  2186                           
  2187  0070                     ??_i2c_low_sda:	
  2188                           ; 1 bytes @ 0x0
  2189                           
  2190  0070                     ?_TMR1_Initialize:	
  2191                           ; 1 bytes @ 0x0
  2192                           
  2193  0070                     ?_TMR1_WriteTimer:	
  2194                           ; 1 bytes @ 0x0
  2195                           
  2196  0070                     ?_TMR1_ISR:	
  2197                           ; 1 bytes @ 0x0
  2198                           
  2199  0070                     ?_TMR2_Initialize:	
  2200                           ; 1 bytes @ 0x0
  2201                           
  2202  0070                     ?_TMR2_ISR:	
  2203                           ; 1 bytes @ 0x0
  2204                           
  2205  0070                     ?_DAC_Initialize:	
  2206                           ; 1 bytes @ 0x0
  2207                           
  2208  0070                     ?_DAC_SetOutput:	
  2209                           ; 1 bytes @ 0x0
  2210                           
  2211  0070                     ??_DAC_SetOutput:	
  2212                           ; 1 bytes @ 0x0
  2213                           
  2214  0070                     ?_INTERRUPT_InterruptManager:	
  2215                           ; 1 bytes @ 0x0
  2216                           
  2217  0070                     ?_SYSTEM_Initialize:	
  2218                           ; 1 bytes @ 0x0
  2219                           
  2220  0070                     ?_RingUpdate:	
  2221                           ; 1 bytes @ 0x0
  2222                           
  2223  0070                     ??_RingUpdate:	
  2224                           ; 1 bytes @ 0x0
  2225                           
  2226  0070                     ?_AudioUpdate:	
  2227                           ; 1 bytes @ 0x0
  2228                           
  2229  0070                     ?_AlienLaugh:	
  2230                           ; 1 bytes @ 0x0
  2231                           
  2232  0070                     ?_AttractFire:	
  2233                           ; 1 bytes @ 0x0
  2234                           
  2235  0070                     ?_AttractAbduct:	
  2236                           ; 1 bytes @ 0x0
  2237                           
  2238  0070                     ?_AttractFlash:	
  2239                           ; 1 bytes @ 0x0
  2240                           
  2241  0070                     ?_main:	
  2242                           ; 1 bytes @ 0x0
  2243                           
  2244  0070                     DAC_SetOutput@inputData:	
  2245                           ; 1 bytes @ 0x0
  2246                           
  2247  0070                     TMR1_WriteTimer@timerVal:	
  2248                           ; 1 bytes @ 0x0
  2249                           
  2250                           
  2251                           ; 2 bytes @ 0x0
  2252  0070                     	ds	1
  2253  0071                     i2c_out_byte@o_byte:
  2254  0071                     i2c_in_byte@n:	
  2255                           ; 1 bytes @ 0x1
  2256                           
  2257                           
  2258                           ; 2 bytes @ 0x1
  2259  0071                     	ds	1
  2260  0072                     ??_TMR1_WriteTimer:
  2261  0072                     i2c_out_byte@n:	
  2262                           ; 1 bytes @ 0x2
  2263                           
  2264                           
  2265                           ; 1 bytes @ 0x2
  2266  0072                     	ds	1
  2267  0073                     ??_TMR1_ISR:
  2268  0073                     i2c_in_byte@i_byte:	
  2269                           ; 1 bytes @ 0x3
  2270                           
  2271                           
  2272                           ; 1 bytes @ 0x3
  2273  0073                     	ds	1
  2274  0074                     ?_EEPROM_ReadOneByte:
  2275  0074                     EEPROM_ReadOneByte@AudioAddress:	
  2276                           ; 1 bytes @ 0x4
  2277                           
  2278                           
  2279                           ; 2 bytes @ 0x4
  2280  0074                     	ds	2
  2281  0076                     ??_EEPROM_ReadOneByte:
  2282                           
  2283                           ; 1 bytes @ 0x6
  2284  0076                     	ds	1
  2285  0077                     EEPROM_ReadOneByte@y:
  2286                           
  2287                           ; 1 bytes @ 0x7
  2288  0077                     	ds	1
  2289  0078                     ??_AudioUpdate:
  2290                           
  2291                           ; 1 bytes @ 0x8
  2292  0078                     	ds	1
  2293  0079                     ??_TMR2_ISR:
  2294  0079                     ??_INTERRUPT_InterruptManager:	
  2295                           ; 1 bytes @ 0x9
  2296                           
  2297                           
  2298                           	psect	cstackBANK0
  2299  0020                     __pcstackBANK0:	
  2300                           ; 1 bytes @ 0x9
  2301                           
  2302  0020                     ?_TMR1_SetInterruptHandler:
  2303  0020                     ?_TMR2_SetInterruptHandler:	
  2304                           ; 1 bytes @ 0x0
  2305                           
  2306  0020                     ??_PIN_MANAGER_Initialize:	
  2307                           ; 1 bytes @ 0x0
  2308                           
  2309  0020                     ??_OSCILLATOR_Initialize:	
  2310                           ; 1 bytes @ 0x0
  2311                           
  2312  0020                     ??_WDT_Initialize:	
  2313                           ; 1 bytes @ 0x0
  2314                           
  2315  0020                     ??_DAC_Initialize:	
  2316                           ; 1 bytes @ 0x0
  2317                           
  2318  0020                     ??_AlienLaugh:	
  2319                           ; 1 bytes @ 0x0
  2320                           
  2321  0020                     ??_AttractFire:	
  2322                           ; 1 bytes @ 0x0
  2323                           
  2324  0020                     ??_AttractAbduct:	
  2325                           ; 1 bytes @ 0x0
  2326                           
  2327  0020                     ??_AttractFlash:	
  2328                           ; 1 bytes @ 0x0
  2329                           
  2330  0020                     ?___lmul:	
  2331                           ; 1 bytes @ 0x0
  2332                           
  2333  0020                     TMR1_SetInterruptHandler@InterruptHandler:	
  2334                           ; 4 bytes @ 0x0
  2335                           
  2336  0020                     TMR2_SetInterruptHandler@InterruptHandler:	
  2337                           ; 2 bytes @ 0x0
  2338                           
  2339  0020                     ___lmul@multiplier:	
  2340                           ; 2 bytes @ 0x0
  2341                           
  2342                           
  2343                           ; 4 bytes @ 0x0
  2344  0020                     	ds	2
  2345  0022                     ??_TMR1_SetInterruptHandler:
  2346  0022                     ??_TMR2_SetInterruptHandler:	
  2347                           ; 1 bytes @ 0x2
  2348                           
  2349  0022                     ??_TMR1_Initialize:	
  2350                           ; 1 bytes @ 0x2
  2351                           
  2352  0022                     ??_TMR2_Initialize:	
  2353                           ; 1 bytes @ 0x2
  2354                           
  2355  0022                     ??_SYSTEM_Initialize:	
  2356                           ; 1 bytes @ 0x2
  2357                           
  2358  0022                     AlienLaugh@i:	
  2359                           ; 1 bytes @ 0x2
  2360                           
  2361  0022                     AttractFire@i:	
  2362                           ; 2 bytes @ 0x2
  2363                           
  2364  0022                     AttractAbduct@i:	
  2365                           ; 2 bytes @ 0x2
  2366                           
  2367  0022                     AttractFlash@i:	
  2368                           ; 2 bytes @ 0x2
  2369                           
  2370                           
  2371                           ; 2 bytes @ 0x2
  2372  0022                     	ds	2
  2373  0024                     ___lmul@multiplicand:
  2374                           
  2375                           ; 4 bytes @ 0x4
  2376  0024                     	ds	4
  2377  0028                     ??___lmul:
  2378  0028                     ___lmul@product:	
  2379                           ; 1 bytes @ 0x8
  2380                           
  2381                           
  2382                           ; 4 bytes @ 0x8
  2383  0028                     	ds	4
  2384  002C                     ?_rand:
  2385                           
  2386                           ; 2 bytes @ 0xC
  2387  002C                     	ds	2
  2388  002E                     ??_rand:
  2389                           
  2390                           ; 1 bytes @ 0xE
  2391  002E                     	ds	4
  2392  0032                     ??_main:
  2393                           
  2394                           ; 1 bytes @ 0x12
  2395  0032                     	ds	2
  2396                           
  2397                           	psect	maintext
  2398  0044                     __pmaintext:	
  2399 ;;
  2400 ;;Main: autosize = 0, tempsize = 2, incstack = 0, save=0
  2401 ;;
  2402 ;; *************** function _main *****************
  2403 ;; Defined at:
  2404 ;;		line 125 in file "main.c"
  2405 ;; Parameters:    Size  Location     Type
  2406 ;;		None
  2407 ;; Auto vars:     Size  Location     Type
  2408 ;;		None
  2409 ;; Return value:  Size  Location     Type
  2410 ;;                  1    wreg      void 
  2411 ;; Registers used:
  2412 ;;		wreg, status,2, status,0, pclath, cstack
  2413 ;; Tracked objects:
  2414 ;;		On entry : B1F/0
  2415 ;;		On exit  : 0/0
  2416 ;;		Unchanged: 0/0
  2417 ;; Data sizes:     COMMON   BANK0   BANK1   BANK2   BANK3   BANK4   BANK5   BANK6   BANK7   BANK8   BANK9  BANK10  BANK1
      +1  BANK12
  2418 ;;      Params:         0       0       0       0       0       0       0       0       0       0       0       0       
      +0       0
  2419 ;;      Locals:         0       0       0       0       0       0       0       0       0       0       0       0       
      +0       0
  2420 ;;      Temps:          0       2       0       0       0       0       0       0       0       0       0       0       
      +0       0
  2421 ;;      Totals:         0       2       0       0       0       0       0       0       0       0       0       0       
      +0       0
  2422 ;;Total ram usage:        2 bytes
  2423 ;; Hardware stack levels required when called: 9
  2424 ;; This function calls:
  2425 ;;		_AlienLaugh
  2426 ;;		_AttractAbduct
  2427 ;;		_AttractFire
  2428 ;;		_AttractFlash
  2429 ;;		_SYSTEM_Initialize
  2430 ;;		_TMR1_SetInterruptHandler
  2431 ;;		_TMR2_SetInterruptHandler
  2432 ;;		_rand
  2433 ;; This function is called by:
  2434 ;;		Startup code after reset
  2435 ;; This function uses a non-reentrant model
  2436 ;;
  2437                           
  2438                           
  2439                           ;psect for function _main
  2440  0044                     _main:
  2441  0044                     l1676:	
  2442                           ;incstack = 0
  2443                           ; Regs used in _main: [wreg+status,2+status,0+pclath+cstack]
  2444                           
  2445                           
  2446                           ;main.c: 128:     SYSTEM_Initialize();
  2447  0044  3184  243D  3180   	fcall	_SYSTEM_Initialize
  2448                           
  2449                           ;main.c: 129:     TMR1_SetInterruptHandler(&RingUpdate);
  2450  0047  3062               	movlw	low _RingUpdate
  2451  0048  0020               	movlb	0	; select bank0
  2452  0049  00A0               	movwf	TMR1_SetInterruptHandler@InterruptHandler
  2453  004A  3002               	movlw	high _RingUpdate
  2454  004B  00A1               	movwf	TMR1_SetInterruptHandler@InterruptHandler+1
  2455  004C  3184  24F4  3180   	fcall	_TMR1_SetInterruptHandler
  2456                           
  2457                           ;main.c: 130:     TMR2_SetInterruptHandler(&AudioUpdate);
  2458  004F  30A3               	movlw	low _AudioUpdate
  2459  0050  0020               	movlb	0	; select bank0
  2460  0051  00A0               	movwf	TMR2_SetInterruptHandler@InterruptHandler
  2461  0052  3003               	movlw	high _AudioUpdate
  2462  0053  00A1               	movwf	TMR2_SetInterruptHandler@InterruptHandler+1
  2463  0054  3184  24EE  3180   	fcall	_TMR2_SetInterruptHandler
  2464  0057                     l1678:
  2465                           
  2466                           ;main.c: 133:     (INTCONbits.GIE = 1);
  2467  0057  178B               	bsf	11,7	;volatile
  2468  0058                     l1680:
  2469                           
  2470                           ;main.c: 134:     (INTCONbits.PEIE = 1);
  2471  0058  170B               	bsf	11,6	;volatile
  2472  0059                     l347:	
  2473                           ;main.c: 137:     while(1){
  2474                           
  2475                           
  2476                           ;main.c: 140:         x = rand();
  2477  0059  3182  22DF  3180   	fcall	_rand
  2478  005C  0020               	movlb	0	; select bank0
  2479  005D  082D               	movf	?_rand+1,w
  2480  005E  00C2               	movwf	_x+1
  2481  005F  082C               	movf	?_rand,w
  2482  0060  00C1               	movwf	_x
  2483  0061                     l1682:
  2484                           
  2485                           ;main.c: 141:         if( 0 < x && x < 104) RingSetting ^=0x10;
  2486  0061  0842               	movf	_x+1,w
  2487  0062  3A80               	xorlw	128
  2488  0063  00B2               	movwf	??_main
  2489  0064  3080               	movlw	128
  2490  0065  0232               	subwf	??_main,w
  2491  0066  1D03               	skipz
  2492  0067  286A               	goto	u895
  2493  0068  3001               	movlw	1
  2494  0069  0241               	subwf	_x,w
  2495  006A                     u895:
  2496  006A  1C03               	skipc
  2497  006B  286D               	goto	u891
  2498  006C  286E               	goto	u890
  2499  006D                     u891:
  2500  006D  2881               	goto	l1688
  2501  006E                     u890:
  2502  006E                     l1684:
  2503  006E  0020               	movlb	0	; select bank0
  2504  006F  0842               	movf	_x+1,w
  2505  0070  3A80               	xorlw	128
  2506  0071  00B2               	movwf	??_main
  2507  0072  3080               	movlw	128
  2508  0073  0232               	subwf	??_main,w
  2509  0074  1D03               	skipz
  2510  0075  2878               	goto	u905
  2511  0076  3068               	movlw	104
  2512  0077  0241               	subwf	_x,w
  2513  0078                     u905:
  2514  0078  1803               	skipnc
  2515  0079  287B               	goto	u901
  2516  007A  287C               	goto	u900
  2517  007B                     u901:
  2518  007B  2881               	goto	l1688
  2519  007C                     u900:
  2520  007C                     l1686:
  2521  007C  3010               	movlw	16
  2522  007D  0020               	movlb	0	; select bank0
  2523  007E  00B2               	movwf	??_main
  2524  007F  0832               	movf	??_main,w
  2525  0080  06C0               	xorwf	_RingSetting,f
  2526  0081                     l1688:
  2527                           
  2528                           ;main.c: 142:         if( 105 < x && x < 313) do { LATAbits.LATA4 = ~LATAbits.LATA4; } w
      +                          hile(0);
  2529  0081  0020               	movlb	0	; select bank0
  2530  0082  0842               	movf	_x+1,w
  2531  0083  3A80               	xorlw	128
  2532  0084  00B2               	movwf	??_main
  2533  0085  3080               	movlw	128
  2534  0086  0232               	subwf	??_main,w
  2535  0087  1D03               	skipz
  2536  0088  288B               	goto	u915
  2537  0089  306A               	movlw	106
  2538  008A  0241               	subwf	_x,w
  2539  008B                     u915:
  2540  008B  1C03               	skipc
  2541  008C  288E               	goto	u911
  2542  008D  288F               	goto	u910
  2543  008E                     u911:
  2544  008E  28A9               	goto	l1694
  2545  008F                     u910:
  2546  008F                     l1690:
  2547  008F  0020               	movlb	0	; select bank0
  2548  0090  0842               	movf	_x+1,w
  2549  0091  3A80               	xorlw	128
  2550  0092  00B2               	movwf	??_main
  2551  0093  3081               	movlw	129
  2552  0094  0232               	subwf	??_main,w
  2553  0095  1D03               	skipz
  2554  0096  2899               	goto	u925
  2555  0097  3039               	movlw	57
  2556  0098  0241               	subwf	_x,w
  2557  0099                     u925:
  2558  0099  1803               	skipnc
  2559  009A  289C               	goto	u921
  2560  009B  289D               	goto	u920
  2561  009C                     u921:
  2562  009C  28A9               	goto	l1694
  2563  009D                     u920:
  2564  009D                     l1692:
  2565  009D  1003               	clrc
  2566  009E  0022               	movlb	2	; select bank2
  2567  009F  1E0C               	btfss	12,4	;volatile
  2568  00A0  1403               	setc
  2569  00A1  1803               	btfsc	3,0
  2570  00A2  28A4               	goto	u931
  2571  00A3  28A7               	goto	u930
  2572  00A4                     u931:
  2573  00A4  0022               	movlb	2	; select bank2
  2574  00A5  160C               	bsf	12,4	;volatile
  2575  00A6  28A9               	goto	u944
  2576  00A7                     u930:
  2577  00A7  0022               	movlb	2	; select bank2
  2578  00A8  120C               	bcf	12,4	;volatile
  2579  00A9                     u944:
  2580  00A9                     l1694:
  2581                           
  2582                           ;main.c: 143:         if( 314 < x && x < 834) do { LATAbits.LATA5 = ~LATAbits.LATA5; } w
      +                          hile(0);
  2583  00A9  0020               	movlb	0	; select bank0
  2584  00AA  0842               	movf	_x+1,w
  2585  00AB  3A80               	xorlw	128
  2586  00AC  00B2               	movwf	??_main
  2587  00AD  3081               	movlw	129
  2588  00AE  0232               	subwf	??_main,w
  2589  00AF  1D03               	skipz
  2590  00B0  28B3               	goto	u955
  2591  00B1  303B               	movlw	59
  2592  00B2  0241               	subwf	_x,w
  2593  00B3                     u955:
  2594  00B3  1C03               	skipc
  2595  00B4  28B6               	goto	u951
  2596  00B5  28B7               	goto	u950
  2597  00B6                     u951:
  2598  00B6  28D1               	goto	l1700
  2599  00B7                     u950:
  2600  00B7                     l1696:
  2601  00B7  0020               	movlb	0	; select bank0
  2602  00B8  0842               	movf	_x+1,w
  2603  00B9  3A80               	xorlw	128
  2604  00BA  00B2               	movwf	??_main
  2605  00BB  3083               	movlw	131
  2606  00BC  0232               	subwf	??_main,w
  2607  00BD  1D03               	skipz
  2608  00BE  28C1               	goto	u965
  2609  00BF  3042               	movlw	66
  2610  00C0  0241               	subwf	_x,w
  2611  00C1                     u965:
  2612  00C1  1803               	skipnc
  2613  00C2  28C4               	goto	u961
  2614  00C3  28C5               	goto	u960
  2615  00C4                     u961:
  2616  00C4  28D1               	goto	l1700
  2617  00C5                     u960:
  2618  00C5                     l1698:
  2619  00C5  1003               	clrc
  2620  00C6  0022               	movlb	2	; select bank2
  2621  00C7  1E8C               	btfss	12,5	;volatile
  2622  00C8  1403               	setc
  2623  00C9  1803               	btfsc	3,0
  2624  00CA  28CC               	goto	u971
  2625  00CB  28CF               	goto	u970
  2626  00CC                     u971:
  2627  00CC  0022               	movlb	2	; select bank2
  2628  00CD  168C               	bsf	12,5	;volatile
  2629  00CE  28D1               	goto	u984
  2630  00CF                     u970:
  2631  00CF  0022               	movlb	2	; select bank2
  2632  00D0  128C               	bcf	12,5	;volatile
  2633  00D1                     u984:
  2634  00D1                     l1700:
  2635                           
  2636                           ;main.c: 144:         if( 835 < x && x < 921) AlienLaugh();
  2637  00D1  0020               	movlb	0	; select bank0
  2638  00D2  0842               	movf	_x+1,w
  2639  00D3  3A80               	xorlw	128
  2640  00D4  00B2               	movwf	??_main
  2641  00D5  3083               	movlw	131
  2642  00D6  0232               	subwf	??_main,w
  2643  00D7  1D03               	skipz
  2644  00D8  28DB               	goto	u995
  2645  00D9  3044               	movlw	68
  2646  00DA  0241               	subwf	_x,w
  2647  00DB                     u995:
  2648  00DB  1C03               	skipc
  2649  00DC  28DE               	goto	u991
  2650  00DD  28DF               	goto	u990
  2651  00DE                     u991:
  2652  00DE  28F0               	goto	l1706
  2653  00DF                     u990:
  2654  00DF                     l1702:
  2655  00DF  0020               	movlb	0	; select bank0
  2656  00E0  0842               	movf	_x+1,w
  2657  00E1  3A80               	xorlw	128
  2658  00E2  00B2               	movwf	??_main
  2659  00E3  3083               	movlw	131
  2660  00E4  0232               	subwf	??_main,w
  2661  00E5  1D03               	skipz
  2662  00E6  28E9               	goto	u1005
  2663  00E7  3099               	movlw	153
  2664  00E8  0241               	subwf	_x,w
  2665  00E9                     u1005:
  2666  00E9  1803               	skipnc
  2667  00EA  28EC               	goto	u1001
  2668  00EB  28ED               	goto	u1000
  2669  00EC                     u1001:
  2670  00EC  28F0               	goto	l1706
  2671  00ED                     u1000:
  2672  00ED                     l1704:
  2673  00ED  3181  21BD  3180   	fcall	_AlienLaugh
  2674  00F0                     l1706:
  2675                           
  2676                           ;main.c: 145:         if( 922 < x && x < 936) AttractFire();
  2677  00F0  0020               	movlb	0	; select bank0
  2678  00F1  0842               	movf	_x+1,w
  2679  00F2  3A80               	xorlw	128
  2680  00F3  00B2               	movwf	??_main
  2681  00F4  3083               	movlw	131
  2682  00F5  0232               	subwf	??_main,w
  2683  00F6  1D03               	skipz
  2684  00F7  28FA               	goto	u1015
  2685  00F8  309B               	movlw	155
  2686  00F9  0241               	subwf	_x,w
  2687  00FA                     u1015:
  2688  00FA  1C03               	skipc
  2689  00FB  28FD               	goto	u1011
  2690  00FC  28FE               	goto	u1010
  2691  00FD                     u1011:
  2692  00FD  290F               	goto	l1712
  2693  00FE                     u1010:
  2694  00FE                     l1708:
  2695  00FE  0020               	movlb	0	; select bank0
  2696  00FF  0842               	movf	_x+1,w
  2697  0100  3A80               	xorlw	128
  2698  0101  00B2               	movwf	??_main
  2699  0102  3083               	movlw	131
  2700  0103  0232               	subwf	??_main,w
  2701  0104  1D03               	skipz
  2702  0105  2908               	goto	u1025
  2703  0106  30A8               	movlw	168
  2704  0107  0241               	subwf	_x,w
  2705  0108                     u1025:
  2706  0108  1803               	skipnc
  2707  0109  290B               	goto	u1021
  2708  010A  290C               	goto	u1020
  2709  010B                     u1021:
  2710  010B  290F               	goto	l1712
  2711  010C                     u1020:
  2712  010C                     l1710:
  2713  010C  3181  215C  3180   	fcall	_AttractFire
  2714  010F                     l1712:
  2715                           
  2716                           ;main.c: 146:         if( 937 < x && x < 1067) AttractFlash();
  2717  010F  0020               	movlb	0	; select bank0
  2718  0110  0842               	movf	_x+1,w
  2719  0111  3A80               	xorlw	128
  2720  0112  00B2               	movwf	??_main
  2721  0113  3083               	movlw	131
  2722  0114  0232               	subwf	??_main,w
  2723  0115  1D03               	skipz
  2724  0116  2919               	goto	u1035
  2725  0117  30AA               	movlw	170
  2726  0118  0241               	subwf	_x,w
  2727  0119                     u1035:
  2728  0119  1C03               	skipc
  2729  011A  291C               	goto	u1031
  2730  011B  291D               	goto	u1030
  2731  011C                     u1031:
  2732  011C  292E               	goto	l1718
  2733  011D                     u1030:
  2734  011D                     l1714:
  2735  011D  0020               	movlb	0	; select bank0
  2736  011E  0842               	movf	_x+1,w
  2737  011F  3A80               	xorlw	128
  2738  0120  00B2               	movwf	??_main
  2739  0121  3084               	movlw	132
  2740  0122  0232               	subwf	??_main,w
  2741  0123  1D03               	skipz
  2742  0124  2927               	goto	u1045
  2743  0125  302B               	movlw	43
  2744  0126  0241               	subwf	_x,w
  2745  0127                     u1045:
  2746  0127  1803               	skipnc
  2747  0128  292A               	goto	u1041
  2748  0129  292B               	goto	u1040
  2749  012A                     u1041:
  2750  012A  292E               	goto	l1718
  2751  012B                     u1040:
  2752  012B                     l1716:
  2753  012B  3182  22A9  3180   	fcall	_AttractFlash
  2754  012E                     l1718:
  2755                           
  2756                           ;main.c: 147:         if(1068 < x && x < 1075) AttractAbduct();
  2757  012E  0020               	movlb	0	; select bank0
  2758  012F  0842               	movf	_x+1,w
  2759  0130  3A80               	xorlw	128
  2760  0131  00B2               	movwf	??_main
  2761  0132  3084               	movlw	132
  2762  0133  0232               	subwf	??_main,w
  2763  0134  1D03               	skipz
  2764  0135  2938               	goto	u1055
  2765  0136  302D               	movlw	45
  2766  0137  0241               	subwf	_x,w
  2767  0138                     u1055:
  2768  0138  1C03               	skipc
  2769  0139  293B               	goto	u1051
  2770  013A  293C               	goto	u1050
  2771  013B                     u1051:
  2772  013B  294D               	goto	l1724
  2773  013C                     u1050:
  2774  013C                     l1720:
  2775  013C  0020               	movlb	0	; select bank0
  2776  013D  0842               	movf	_x+1,w
  2777  013E  3A80               	xorlw	128
  2778  013F  00B2               	movwf	??_main
  2779  0140  3084               	movlw	132
  2780  0141  0232               	subwf	??_main,w
  2781  0142  1D03               	skipz
  2782  0143  2946               	goto	u1065
  2783  0144  3033               	movlw	51
  2784  0145  0241               	subwf	_x,w
  2785  0146                     u1065:
  2786  0146  1803               	skipnc
  2787  0147  2949               	goto	u1061
  2788  0148  294A               	goto	u1060
  2789  0149                     u1061:
  2790  0149  294D               	goto	l1724
  2791  014A                     u1060:
  2792  014A                     l1722:
  2793  014A  3182  2213  3180   	fcall	_AttractAbduct
  2794  014D                     l1724:
  2795                           
  2796                           ;main.c: 148:         _delay((unsigned long)((100)*(16000000/4000.0)));
  2797  014D  3003               	movlw	3
  2798  014E  0020               	movlb	0	; select bank0
  2799  014F  00B3               	movwf	??_main+1
  2800  0150  3008               	movlw	8
  2801  0151  00B2               	movwf	??_main
  2802  0152  3077               	movlw	119
  2803  0153                     u1077:
  2804  0153  0B89               	decfsz	9,f
  2805  0154  2953               	goto	u1077
  2806  0155  0BB2               	decfsz	??_main,f
  2807  0156  2953               	goto	u1077
  2808  0157  0BB3               	decfsz	??_main+1,f
  2809  0158  2953               	goto	u1077
  2810  0159  2859               	goto	l347
  2811  015A  3180  2828         	ljmp	start
  2812  015C                     __end_of_main:
  2813                           
  2814                           	psect	text1
  2815  02DF                     __ptext1:	
  2816 ;; *************** function _rand *****************
  2817 ;; Defined at:
  2818 ;;		line 11 in file "C:\Program Files\Microchip\xc8\v2.32\pic\sources\c99\common\rand.c"
  2819 ;; Parameters:    Size  Location     Type
  2820 ;;		None
  2821 ;; Auto vars:     Size  Location     Type
  2822 ;;		None
  2823 ;; Return value:  Size  Location     Type
  2824 ;;                  2   12[BANK0 ] int 
  2825 ;; Registers used:
  2826 ;;		wreg, status,2, status,0, pclath, cstack
  2827 ;; Tracked objects:
  2828 ;;		On entry : 0/0
  2829 ;;		On exit  : 0/0
  2830 ;;		Unchanged: 0/0
  2831 ;; Data sizes:     COMMON   BANK0   BANK1   BANK2   BANK3   BANK4   BANK5   BANK6   BANK7   BANK8   BANK9  BANK10  BANK1
      +1  BANK12
  2832 ;;      Params:         0       2       0       0       0       0       0       0       0       0       0       0       
      +0       0
  2833 ;;      Locals:         0       0       0       0       0       0       0       0       0       0       0       0       
      +0       0
  2834 ;;      Temps:          0       4       0       0       0       0       0       0       0       0       0       0       
      +0       0
  2835 ;;      Totals:         0       6       0       0       0       0       0       0       0       0       0       0       
      +0       0
  2836 ;;Total ram usage:        6 bytes
  2837 ;; Hardware stack levels used: 1
  2838 ;; Hardware stack levels required when called: 7
  2839 ;; This function calls:
  2840 ;;		___lmul
  2841 ;; This function is called by:
  2842 ;;		_main
  2843 ;; This function uses a non-reentrant model
  2844 ;;
  2845                           
  2846                           
  2847                           ;psect for function _rand
  2848  02DF                     _rand:
  2849  02DF                     l1656:	
  2850                           ;incstack = 0
  2851                           ; Regs used in _rand: [wreg+status,2+status,0+pclath+cstack]
  2852                           
  2853  02DF  0020               	movlb	0	; select bank0
  2854  02E0  084E               	movf	_seed+3,w
  2855  02E1  00A3               	movwf	___lmul@multiplier+3
  2856  02E2  084D               	movf	_seed+2,w
  2857  02E3  00A2               	movwf	___lmul@multiplier+2
  2858  02E4  084C               	movf	_seed+1,w
  2859  02E5  00A1               	movwf	___lmul@multiplier+1
  2860  02E6  084B               	movf	_seed,w
  2861  02E7  00A0               	movwf	___lmul@multiplier
  2862  02E8  304C               	movlw	76
  2863  02E9  00A7               	movwf	___lmul@multiplicand+3
  2864  02EA  3095               	movlw	149
  2865  02EB  00A6               	movwf	___lmul@multiplicand+2
  2866  02EC  307F               	movlw	127
  2867  02ED  00A5               	movwf	___lmul@multiplicand+1
  2868  02EE  302D               	movlw	45
  2869  02EF  00A4               	movwf	___lmul@multiplicand
  2870  02F0  3183  2314  3182   	fcall	___lmul
  2871  02F3  3001               	movlw	1
  2872  02F4  0020               	movlb	0	; select bank0
  2873  02F5  0720               	addwf	?___lmul,w
  2874  02F6  00CB               	movwf	_seed
  2875  02F7  3000               	movlw	0
  2876  02F8  3D21               	addwfc	?___lmul+1,w
  2877  02F9  00CC               	movwf	_seed+1
  2878  02FA  3000               	movlw	0
  2879  02FB  3D22               	addwfc	?___lmul+2,w
  2880  02FC  00CD               	movwf	_seed+2
  2881  02FD  3000               	movlw	0
  2882  02FE  3D23               	addwfc	?___lmul+3,w
  2883  02FF  00CE               	movwf	_seed+3
  2884  0300                     l1658:
  2885  0300  084B               	movf	_seed,w
  2886  0301  00AE               	movwf	??_rand
  2887  0302  084C               	movf	_seed+1,w
  2888  0303  00AF               	movwf	??_rand+1
  2889  0304  084D               	movf	_seed+2,w
  2890  0305  00B0               	movwf	??_rand+2
  2891  0306  084E               	movf	_seed+3,w
  2892  0307  00B1               	movwf	??_rand+3
  2893  0308  3011               	movlw	17
  2894  0309                     u835:
  2895  0309  36B1               	lsrf	??_rand+3,f
  2896  030A  0CB0               	rrf	??_rand+2,f
  2897  030B  0CAF               	rrf	??_rand+1,f
  2898  030C  0CAE               	rrf	??_rand,f
  2899  030D                     u830:
  2900  030D  0B89               	decfsz	9,f
  2901  030E  2B09               	goto	u835
  2902  030F  082F               	movf	??_rand+1,w
  2903  0310  00AD               	movwf	?_rand+1
  2904  0311  082E               	movf	??_rand,w
  2905  0312  00AC               	movwf	?_rand
  2906  0313                     l962:
  2907  0313  0008               	return
  2908  0314                     __end_of_rand:
  2909                           
  2910                           	psect	text2
  2911  0314                     __ptext2:	
  2912 ;; *************** function ___lmul *****************
  2913 ;; Defined at:
  2914 ;;		line 15 in file "C:\Program Files\Microchip\xc8\v2.32\pic\sources\c99\common\Umul32.c"
  2915 ;; Parameters:    Size  Location     Type
  2916 ;;  multiplier      4    0[BANK0 ] unsigned long 
  2917 ;;  multiplicand    4    4[BANK0 ] unsigned long 
  2918 ;; Auto vars:     Size  Location     Type
  2919 ;;  product         4    8[BANK0 ] unsigned long 
  2920 ;; Return value:  Size  Location     Type
  2921 ;;                  4    0[BANK0 ] unsigned long 
  2922 ;; Registers used:
  2923 ;;		wreg, status,2, status,0
  2924 ;; Tracked objects:
  2925 ;;		On entry : 0/0
  2926 ;;		On exit  : 0/0
  2927 ;;		Unchanged: 0/0
  2928 ;; Data sizes:     COMMON   BANK0   BANK1   BANK2   BANK3   BANK4   BANK5   BANK6   BANK7   BANK8   BANK9  BANK10  BANK1
      +1  BANK12
  2929 ;;      Params:         0       8       0       0       0       0       0       0       0       0       0       0       
      +0       0
  2930 ;;      Locals:         0       4       0       0       0       0       0       0       0       0       0       0       
      +0       0
  2931 ;;      Temps:          0       0       0       0       0       0       0       0       0       0       0       0       
      +0       0
  2932 ;;      Totals:         0      12       0       0       0       0       0       0       0       0       0       0       
      +0       0
  2933 ;;Total ram usage:       12 bytes
  2934 ;; Hardware stack levels used: 1
  2935 ;; Hardware stack levels required when called: 6
  2936 ;; This function calls:
  2937 ;;		Nothing
  2938 ;; This function is called by:
  2939 ;;		_rand
  2940 ;; This function uses a non-reentrant model
  2941 ;;
  2942                           
  2943                           
  2944                           ;psect for function ___lmul
  2945  0314                     ___lmul:
  2946  0314                     l1534:	
  2947                           ;incstack = 0
  2948                           ; Regs used in ___lmul: [wreg+status,2+status,0]
  2949                           
  2950  0314  3000               	movlw	0
  2951  0315  0020               	movlb	0	; select bank0
  2952  0316  00AB               	movwf	___lmul@product+3
  2953  0317  3000               	movlw	0
  2954  0318  00AA               	movwf	___lmul@product+2
  2955  0319  3000               	movlw	0
  2956  031A  00A9               	movwf	___lmul@product+1
  2957  031B  3000               	movlw	0
  2958  031C  00A8               	movwf	___lmul@product
  2959  031D                     l1536:
  2960  031D  1C20               	btfss	___lmul@multiplier,0
  2961  031E  2B20               	goto	u681
  2962  031F  2B21               	goto	u680
  2963  0320                     u681:
  2964  0320  2B29               	goto	l1540
  2965  0321                     u680:
  2966  0321                     l1538:
  2967  0321  0824               	movf	___lmul@multiplicand,w
  2968  0322  07A8               	addwf	___lmul@product,f
  2969  0323  0825               	movf	___lmul@multiplicand+1,w
  2970  0324  3DA9               	addwfc	___lmul@product+1,f
  2971  0325  0826               	movf	___lmul@multiplicand+2,w
  2972  0326  3DAA               	addwfc	___lmul@product+2,f
  2973  0327  0827               	movf	___lmul@multiplicand+3,w
  2974  0328  3DAB               	addwfc	___lmul@product+3,f
  2975  0329                     l1540:
  2976  0329  3001               	movlw	1
  2977  032A                     u695:
  2978  032A  35A4               	lslf	___lmul@multiplicand,f
  2979  032B  0DA5               	rlf	___lmul@multiplicand+1,f
  2980  032C  0DA6               	rlf	___lmul@multiplicand+2,f
  2981  032D  0DA7               	rlf	___lmul@multiplicand+3,f
  2982  032E  0B89               	decfsz	9,f
  2983  032F  2B2A               	goto	u695
  2984  0330                     l1542:
  2985  0330  3001               	movlw	1
  2986  0331                     u705:
  2987  0331  36A3               	lsrf	___lmul@multiplier+3,f
  2988  0332  0CA2               	rrf	___lmul@multiplier+2,f
  2989  0333  0CA1               	rrf	___lmul@multiplier+1,f
  2990  0334  0CA0               	rrf	___lmul@multiplier,f
  2991  0335  0B89               	decfsz	9,f
  2992  0336  2B31               	goto	u705
  2993  0337  0823               	movf	___lmul@multiplier+3,w
  2994  0338  0422               	iorwf	___lmul@multiplier+2,w
  2995  0339  0421               	iorwf	___lmul@multiplier+1,w
  2996  033A  0420               	iorwf	___lmul@multiplier,w
  2997  033B  1D03               	skipz
  2998  033C  2B3E               	goto	u711
  2999  033D  2B3F               	goto	u710
  3000  033E                     u711:
  3001  033E  2B1D               	goto	l1536
  3002  033F                     u710:
  3003  033F                     l1544:
  3004  033F  082B               	movf	___lmul@product+3,w
  3005  0340  00A3               	movwf	?___lmul+3
  3006  0341  082A               	movf	___lmul@product+2,w
  3007  0342  00A2               	movwf	?___lmul+2
  3008  0343  0829               	movf	___lmul@product+1,w
  3009  0344  00A1               	movwf	?___lmul+1
  3010  0345  0828               	movf	___lmul@product,w
  3011  0346  00A0               	movwf	?___lmul
  3012  0347                     l512:
  3013  0347  0008               	return
  3014  0348                     __end_of___lmul:
  3015                           
  3016                           	psect	text3
  3017  043D                     __ptext3:	
  3018 ;; *************** function _SYSTEM_Initialize *****************
  3019 ;; Defined at:
  3020 ;;		line 50 in file "mcc_generated_files/mcc.c"
  3021 ;; Parameters:    Size  Location     Type
  3022 ;;		None
  3023 ;; Auto vars:     Size  Location     Type
  3024 ;;		None
  3025 ;; Return value:  Size  Location     Type
  3026 ;;                  1    wreg      void 
  3027 ;; Registers used:
  3028 ;;		wreg, status,2, status,0, pclath, cstack
  3029 ;; Tracked objects:
  3030 ;;		On entry : 0/0
  3031 ;;		On exit  : 0/0
  3032 ;;		Unchanged: 0/0
  3033 ;; Data sizes:     COMMON   BANK0   BANK1   BANK2   BANK3   BANK4   BANK5   BANK6   BANK7   BANK8   BANK9  BANK10  BANK1
      +1  BANK12
  3034 ;;      Params:         0       0       0       0       0       0       0       0       0       0       0       0       
      +0       0
  3035 ;;      Locals:         0       0       0       0       0       0       0       0       0       0       0       0       
      +0       0
  3036 ;;      Temps:          0       0       0       0       0       0       0       0       0       0       0       0       
      +0       0
  3037 ;;      Totals:         0       0       0       0       0       0       0       0       0       0       0       0       
      +0       0
  3038 ;;Total ram usage:        0 bytes
  3039 ;; Hardware stack levels used: 1
  3040 ;; Hardware stack levels required when called: 8
  3041 ;; This function calls:
  3042 ;;		_DAC_Initialize
  3043 ;;		_OSCILLATOR_Initialize
  3044 ;;		_PIN_MANAGER_Initialize
  3045 ;;		_TMR1_Initialize
  3046 ;;		_TMR2_Initialize
  3047 ;;		_WDT_Initialize
  3048 ;; This function is called by:
  3049 ;;		_main
  3050 ;; This function uses a non-reentrant model
  3051 ;;
  3052                           
  3053                           
  3054                           ;psect for function _SYSTEM_Initialize
  3055  043D                     _SYSTEM_Initialize:
  3056  043D                     l1562:	
  3057                           ;incstack = 0
  3058                           ; Regs used in _SYSTEM_Initialize: [wreg+status,2+status,0+pclath+cstack]
  3059                           
  3060                           
  3061                           ;mcc_generated_files/mcc.c: 53:     PIN_MANAGER_Initialize();
  3062  043D  3183  23F0  3184   	fcall	_PIN_MANAGER_Initialize
  3063                           
  3064                           ;mcc_generated_files/mcc.c: 54:     OSCILLATOR_Initialize();
  3065  0440  3184  24D2  3184   	fcall	_OSCILLATOR_Initialize
  3066                           
  3067                           ;mcc_generated_files/mcc.c: 55:     WDT_Initialize();
  3068  0443  3185  2505  3184   	fcall	_WDT_Initialize
  3069                           
  3070                           ;mcc_generated_files/mcc.c: 56:     DAC_Initialize();
  3071  0446  3184  24FA  3184   	fcall	_DAC_Initialize
  3072                           
  3073                           ;mcc_generated_files/mcc.c: 57:     TMR2_Initialize();
  3074  0449  3184  2450  3184   	fcall	_TMR2_Initialize
  3075                           
  3076                           ;mcc_generated_files/mcc.c: 58:     TMR1_Initialize();
  3077  044C  3184  240E  3184   	fcall	_TMR1_Initialize
  3078  044F                     l165:
  3079  044F  0008               	return
  3080  0450                     __end_of_SYSTEM_Initialize:
  3081                           
  3082                           	psect	text4
  3083  0505                     __ptext4:	
  3084 ;; *************** function _WDT_Initialize *****************
  3085 ;; Defined at:
  3086 ;;		line 73 in file "mcc_generated_files/mcc.c"
  3087 ;; Parameters:    Size  Location     Type
  3088 ;;		None
  3089 ;; Auto vars:     Size  Location     Type
  3090 ;;		None
  3091 ;; Return value:  Size  Location     Type
  3092 ;;                  1    wreg      void 
  3093 ;; Registers used:
  3094 ;;		wreg
  3095 ;; Tracked objects:
  3096 ;;		On entry : 0/0
  3097 ;;		On exit  : 0/0
  3098 ;;		Unchanged: 0/0
  3099 ;; Data sizes:     COMMON   BANK0   BANK1   BANK2   BANK3   BANK4   BANK5   BANK6   BANK7   BANK8   BANK9  BANK10  BANK1
      +1  BANK12
  3100 ;;      Params:         0       0       0       0       0       0       0       0       0       0       0       0       
      +0       0
  3101 ;;      Locals:         0       0       0       0       0       0       0       0       0       0       0       0       
      +0       0
  3102 ;;      Temps:          0       0       0       0       0       0       0       0       0       0       0       0       
      +0       0
  3103 ;;      Totals:         0       0       0       0       0       0       0       0       0       0       0       0       
      +0       0
  3104 ;;Total ram usage:        0 bytes
  3105 ;; Hardware stack levels used: 1
  3106 ;; Hardware stack levels required when called: 6
  3107 ;; This function calls:
  3108 ;;		Nothing
  3109 ;; This function is called by:
  3110 ;;		_SYSTEM_Initialize
  3111 ;; This function uses a non-reentrant model
  3112 ;;
  3113                           
  3114                           
  3115                           ;psect for function _WDT_Initialize
  3116  0505                     _WDT_Initialize:
  3117  0505                     l1514:	
  3118                           ;incstack = 0
  3119                           ; Regs used in _WDT_Initialize: [wreg]
  3120                           
  3121                           
  3122                           ;mcc_generated_files/mcc.c: 76:     WDTCON = 0x16;
  3123  0505  3016               	movlw	22
  3124  0506  0021               	movlb	1	; select bank1
  3125  0507  0097               	movwf	23	;volatile
  3126  0508                     l171:
  3127  0508  0008               	return
  3128  0509                     __end_of_WDT_Initialize:
  3129                           
  3130                           	psect	text5
  3131  0450                     __ptext5:	
  3132 ;; *************** function _TMR2_Initialize *****************
  3133 ;; Defined at:
  3134 ;;		line 64 in file "mcc_generated_files/tmr2.c"
  3135 ;; Parameters:    Size  Location     Type
  3136 ;;		None
  3137 ;; Auto vars:     Size  Location     Type
  3138 ;;		None
  3139 ;; Return value:  Size  Location     Type
  3140 ;;                  1    wreg      void 
  3141 ;; Registers used:
  3142 ;;		wreg, status,2, status,0, pclath, cstack
  3143 ;; Tracked objects:
  3144 ;;		On entry : 0/0
  3145 ;;		On exit  : 0/0
  3146 ;;		Unchanged: 0/0
  3147 ;; Data sizes:     COMMON   BANK0   BANK1   BANK2   BANK3   BANK4   BANK5   BANK6   BANK7   BANK8   BANK9  BANK10  BANK1
      +1  BANK12
  3148 ;;      Params:         0       0       0       0       0       0       0       0       0       0       0       0       
      +0       0
  3149 ;;      Locals:         0       0       0       0       0       0       0       0       0       0       0       0       
      +0       0
  3150 ;;      Temps:          0       0       0       0       0       0       0       0       0       0       0       0       
      +0       0
  3151 ;;      Totals:         0       0       0       0       0       0       0       0       0       0       0       0       
      +0       0
  3152 ;;Total ram usage:        0 bytes
  3153 ;; Hardware stack levels used: 1
  3154 ;; Hardware stack levels required when called: 7
  3155 ;; This function calls:
  3156 ;;		_TMR2_SetInterruptHandler
  3157 ;; This function is called by:
  3158 ;;		_SYSTEM_Initialize
  3159 ;; This function uses a non-reentrant model
  3160 ;;
  3161                           
  3162                           
  3163                           ;psect for function _TMR2_Initialize
  3164  0450                     _TMR2_Initialize:
  3165  0450                     l1472:	
  3166                           ;incstack = 0
  3167                           ; Regs used in _TMR2_Initialize: [wreg+status,2+status,0+pclath+cstack]
  3168                           
  3169                           
  3170                           ;mcc_generated_files/tmr2.c: 69:     PR2 = 0xF9;
  3171  0450  30F9               	movlw	249
  3172  0451  0020               	movlb	0	; select bank0
  3173  0452  009B               	movwf	27	;volatile
  3174  0453                     l1474:
  3175                           
  3176                           ;mcc_generated_files/tmr2.c: 72:     TMR2 = 0x00;
  3177  0453  019A               	clrf	26	;volatile
  3178  0454                     l1476:
  3179                           
  3180                           ;mcc_generated_files/tmr2.c: 75:     PIR1bits.TMR2IF = 0;
  3181  0454  1091               	bcf	17,1	;volatile
  3182  0455                     l1478:
  3183                           
  3184                           ;mcc_generated_files/tmr2.c: 78:     PIE1bits.TMR2IE = 1;
  3185  0455  0021               	movlb	1	; select bank1
  3186  0456  1491               	bsf	17,1	;volatile
  3187  0457                     l1480:
  3188                           
  3189                           ;mcc_generated_files/tmr2.c: 81:     TMR2_SetInterruptHandler(TMR2_DefaultInterruptHandl
      +                          er);
  3190  0457  3009               	movlw	low _TMR2_DefaultInterruptHandler
  3191  0458  0020               	movlb	0	; select bank0
  3192  0459  00A0               	movwf	TMR2_SetInterruptHandler@InterruptHandler
  3193  045A  3005               	movlw	high _TMR2_DefaultInterruptHandler
  3194  045B  00A1               	movwf	TMR2_SetInterruptHandler@InterruptHandler+1
  3195  045C  3184  24EE  3184   	fcall	_TMR2_SetInterruptHandler
  3196  045F                     l1482:
  3197                           
  3198                           ;mcc_generated_files/tmr2.c: 84:     T2CON = 0x0C;
  3199  045F  300C               	movlw	12
  3200  0460  0020               	movlb	0	; select bank0
  3201  0461  009C               	movwf	28	;volatile
  3202  0462                     l81:
  3203  0462  0008               	return
  3204  0463                     __end_of_TMR2_Initialize:
  3205                           
  3206                           	psect	text6
  3207  04EE                     __ptext6:	
  3208 ;; *************** function _TMR2_SetInterruptHandler *****************
  3209 ;; Defined at:
  3210 ;;		line 132 in file "mcc_generated_files/tmr2.c"
  3211 ;; Parameters:    Size  Location     Type
  3212 ;;  InterruptHan    2    0[BANK0 ] PTR FTN()void 
  3213 ;;		 -> AudioUpdate(1), TMR2_DefaultInterruptHandler(1), 
  3214 ;; Auto vars:     Size  Location     Type
  3215 ;;		None
  3216 ;; Return value:  Size  Location     Type
  3217 ;;                  1    wreg      void 
  3218 ;; Registers used:
  3219 ;;		wreg
  3220 ;; Tracked objects:
  3221 ;;		On entry : 0/0
  3222 ;;		On exit  : 0/0
  3223 ;;		Unchanged: 0/0
  3224 ;; Data sizes:     COMMON   BANK0   BANK1   BANK2   BANK3   BANK4   BANK5   BANK6   BANK7   BANK8   BANK9  BANK10  BANK1
      +1  BANK12
  3225 ;;      Params:         0       2       0       0       0       0       0       0       0       0       0       0       
      +0       0
  3226 ;;      Locals:         0       0       0       0       0       0       0       0       0       0       0       0       
      +0       0
  3227 ;;      Temps:          0       0       0       0       0       0       0       0       0       0       0       0       
      +0       0
  3228 ;;      Totals:         0       2       0       0       0       0       0       0       0       0       0       0       
      +0       0
  3229 ;;Total ram usage:        2 bytes
  3230 ;; Hardware stack levels used: 1
  3231 ;; Hardware stack levels required when called: 6
  3232 ;; This function calls:
  3233 ;;		Nothing
  3234 ;; This function is called by:
  3235 ;;		_TMR2_Initialize
  3236 ;;		_main
  3237 ;; This function uses a non-reentrant model
  3238 ;;
  3239                           
  3240                           
  3241                           ;psect for function _TMR2_SetInterruptHandler
  3242  04EE                     _TMR2_SetInterruptHandler:
  3243  04EE                     l1432:	
  3244                           ;incstack = 0
  3245                           ; Regs used in _TMR2_SetInterruptHandler: [wreg]
  3246                           
  3247                           
  3248                           ;mcc_generated_files/tmr2.c: 133:     TMR2_InterruptHandler = InterruptHandler;
  3249  04EE  0020               	movlb	0	; select bank0
  3250  04EF  0821               	movf	TMR2_SetInterruptHandler@InterruptHandler+1,w
  3251  04F0  00C4               	movwf	_TMR2_InterruptHandler+1
  3252  04F1  0820               	movf	TMR2_SetInterruptHandler@InterruptHandler,w
  3253  04F2  00C3               	movwf	_TMR2_InterruptHandler
  3254  04F3                     l103:
  3255  04F3  0008               	return
  3256  04F4                     __end_of_TMR2_SetInterruptHandler:
  3257                           
  3258                           	psect	text7
  3259  040E                     __ptext7:	
  3260 ;; *************** function _TMR1_Initialize *****************
  3261 ;; Defined at:
  3262 ;;		line 64 in file "mcc_generated_files/tmr1.c"
  3263 ;; Parameters:    Size  Location     Type
  3264 ;;		None
  3265 ;; Auto vars:     Size  Location     Type
  3266 ;;		None
  3267 ;; Return value:  Size  Location     Type
  3268 ;;                  1    wreg      void 
  3269 ;; Registers used:
  3270 ;;		wreg, status,2, status,0, pclath, cstack
  3271 ;; Tracked objects:
  3272 ;;		On entry : 0/0
  3273 ;;		On exit  : 0/0
  3274 ;;		Unchanged: 0/0
  3275 ;; Data sizes:     COMMON   BANK0   BANK1   BANK2   BANK3   BANK4   BANK5   BANK6   BANK7   BANK8   BANK9  BANK10  BANK1
      +1  BANK12
  3276 ;;      Params:         0       0       0       0       0       0       0       0       0       0       0       0       
      +0       0
  3277 ;;      Locals:         0       0       0       0       0       0       0       0       0       0       0       0       
      +0       0
  3278 ;;      Temps:          0       0       0       0       0       0       0       0       0       0       0       0       
      +0       0
  3279 ;;      Totals:         0       0       0       0       0       0       0       0       0       0       0       0       
      +0       0
  3280 ;;Total ram usage:        0 bytes
  3281 ;; Hardware stack levels used: 1
  3282 ;; Hardware stack levels required when called: 7
  3283 ;; This function calls:
  3284 ;;		_TMR1_SetInterruptHandler
  3285 ;; This function is called by:
  3286 ;;		_SYSTEM_Initialize
  3287 ;; This function uses a non-reentrant model
  3288 ;;
  3289                           
  3290                           
  3291                           ;psect for function _TMR1_Initialize
  3292  040E                     _TMR1_Initialize:
  3293  040E                     l1442:	
  3294                           ;incstack = 0
  3295                           ; Regs used in _TMR1_Initialize: [wreg+status,2+status,0+pclath+cstack]
  3296                           
  3297                           
  3298                           ;mcc_generated_files/tmr1.c: 69:     T1GCON = 0x00;
  3299  040E  0020               	movlb	0	; select bank0
  3300  040F  0199               	clrf	25	;volatile
  3301  0410                     l1444:
  3302                           
  3303                           ;mcc_generated_files/tmr1.c: 72:     TMR1H = 0xC3;
  3304  0410  30C3               	movlw	195
  3305  0411  0097               	movwf	23	;volatile
  3306  0412                     l1446:
  3307                           
  3308                           ;mcc_generated_files/tmr1.c: 75:     TMR1L = 0x74;
  3309  0412  3074               	movlw	116
  3310  0413  0096               	movwf	22	;volatile
  3311  0414                     l1448:
  3312                           
  3313                           ;mcc_generated_files/tmr1.c: 78:     PIR1bits.TMR1IF = 0;
  3314  0414  1011               	bcf	17,0	;volatile
  3315  0415                     l1450:
  3316                           
  3317                           ;mcc_generated_files/tmr1.c: 81:     timer1ReloadVal=(uint16_t)((TMR1H << 8) | TMR1L);
  3318  0415  0817               	movf	23,w	;volatile
  3319  0416  00C8               	movwf	_timer1ReloadVal+1	;volatile
  3320  0417  0816               	movf	22,w	;volatile
  3321  0418  00C7               	movwf	_timer1ReloadVal	;volatile
  3322  0419                     l1452:
  3323                           
  3324                           ;mcc_generated_files/tmr1.c: 84:     PIE1bits.TMR1IE = 1;
  3325  0419  0021               	movlb	1	; select bank1
  3326  041A  1411               	bsf	17,0	;volatile
  3327  041B                     l1454:
  3328                           
  3329                           ;mcc_generated_files/tmr1.c: 87:     TMR1_SetInterruptHandler(TMR1_DefaultInterruptHandl
      +                          er);
  3330  041B  300A               	movlw	low _TMR1_DefaultInterruptHandler
  3331  041C  0020               	movlb	0	; select bank0
  3332  041D  00A0               	movwf	TMR1_SetInterruptHandler@InterruptHandler
  3333  041E  3005               	movlw	high _TMR1_DefaultInterruptHandler
  3334  041F  00A1               	movwf	TMR1_SetInterruptHandler@InterruptHandler+1
  3335  0420  3184  24F4  3184   	fcall	_TMR1_SetInterruptHandler
  3336  0423                     l1456:
  3337                           
  3338                           ;mcc_generated_files/tmr1.c: 90:     T1CON = 0xC5;
  3339  0423  30C5               	movlw	197
  3340  0424  0020               	movlb	0	; select bank0
  3341  0425  0098               	movwf	24	;volatile
  3342  0426                     l27:
  3343  0426  0008               	return
  3344  0427                     __end_of_TMR1_Initialize:
  3345                           
  3346                           	psect	text8
  3347  04F4                     __ptext8:	
  3348 ;; *************** function _TMR1_SetInterruptHandler *****************
  3349 ;; Defined at:
  3350 ;;		line 171 in file "mcc_generated_files/tmr1.c"
  3351 ;; Parameters:    Size  Location     Type
  3352 ;;  InterruptHan    2    0[BANK0 ] PTR FTN()void 
  3353 ;;		 -> RingUpdate(1), TMR1_DefaultInterruptHandler(1), 
  3354 ;; Auto vars:     Size  Location     Type
  3355 ;;		None
  3356 ;; Return value:  Size  Location     Type
  3357 ;;                  1    wreg      void 
  3358 ;; Registers used:
  3359 ;;		wreg
  3360 ;; Tracked objects:
  3361 ;;		On entry : 0/0
  3362 ;;		On exit  : 0/0
  3363 ;;		Unchanged: 0/0
  3364 ;; Data sizes:     COMMON   BANK0   BANK1   BANK2   BANK3   BANK4   BANK5   BANK6   BANK7   BANK8   BANK9  BANK10  BANK1
      +1  BANK12
  3365 ;;      Params:         0       2       0       0       0       0       0       0       0       0       0       0       
      +0       0
  3366 ;;      Locals:         0       0       0       0       0       0       0       0       0       0       0       0       
      +0       0
  3367 ;;      Temps:          0       0       0       0       0       0       0       0       0       0       0       0       
      +0       0
  3368 ;;      Totals:         0       2       0       0       0       0       0       0       0       0       0       0       
      +0       0
  3369 ;;Total ram usage:        2 bytes
  3370 ;; Hardware stack levels used: 1
  3371 ;; Hardware stack levels required when called: 6
  3372 ;; This function calls:
  3373 ;;		Nothing
  3374 ;; This function is called by:
  3375 ;;		_TMR1_Initialize
  3376 ;;		_main
  3377 ;; This function uses a non-reentrant model
  3378 ;;
  3379                           
  3380                           
  3381                           ;psect for function _TMR1_SetInterruptHandler
  3382  04F4                     _TMR1_SetInterruptHandler:
  3383  04F4                     l1430:	
  3384                           ;incstack = 0
  3385                           ; Regs used in _TMR1_SetInterruptHandler: [wreg]
  3386                           
  3387                           
  3388                           ;mcc_generated_files/tmr1.c: 172:     TMR1_InterruptHandler = InterruptHandler;
  3389  04F4  0020               	movlb	0	; select bank0
  3390  04F5  0821               	movf	TMR1_SetInterruptHandler@InterruptHandler+1,w
  3391  04F6  00C6               	movwf	_TMR1_InterruptHandler+1
  3392  04F7  0820               	movf	TMR1_SetInterruptHandler@InterruptHandler,w
  3393  04F8  00C5               	movwf	_TMR1_InterruptHandler
  3394  04F9                     l57:
  3395  04F9  0008               	return
  3396  04FA                     __end_of_TMR1_SetInterruptHandler:
  3397                           
  3398                           	psect	text9
  3399  03F0                     __ptext9:	
  3400 ;; *************** function _PIN_MANAGER_Initialize *****************
  3401 ;; Defined at:
  3402 ;;		line 55 in file "mcc_generated_files/pin_manager.c"
  3403 ;; Parameters:    Size  Location     Type
  3404 ;;		None
  3405 ;; Auto vars:     Size  Location     Type
  3406 ;;		None
  3407 ;; Return value:  Size  Location     Type
  3408 ;;                  1    wreg      void 
  3409 ;; Registers used:
  3410 ;;		wreg, status,2
  3411 ;; Tracked objects:
  3412 ;;		On entry : 0/0
  3413 ;;		On exit  : 0/0
  3414 ;;		Unchanged: 0/0
  3415 ;; Data sizes:     COMMON   BANK0   BANK1   BANK2   BANK3   BANK4   BANK5   BANK6   BANK7   BANK8   BANK9  BANK10  BANK1
      +1  BANK12
  3416 ;;      Params:         0       0       0       0       0       0       0       0       0       0       0       0       
      +0       0
  3417 ;;      Locals:         0       0       0       0       0       0       0       0       0       0       0       0       
      +0       0
  3418 ;;      Temps:          0       0       0       0       0       0       0       0       0       0       0       0       
      +0       0
  3419 ;;      Totals:         0       0       0       0       0       0       0       0       0       0       0       0       
      +0       0
  3420 ;;Total ram usage:        0 bytes
  3421 ;; Hardware stack levels used: 1
  3422 ;; Hardware stack levels required when called: 6
  3423 ;; This function calls:
  3424 ;;		Nothing
  3425 ;; This function is called by:
  3426 ;;		_SYSTEM_Initialize
  3427 ;; This function uses a non-reentrant model
  3428 ;;
  3429                           
  3430                           
  3431                           ;psect for function _PIN_MANAGER_Initialize
  3432  03F0                     _PIN_MANAGER_Initialize:
  3433  03F0                     l1486:	
  3434                           ;incstack = 0
  3435                           ; Regs used in _PIN_MANAGER_Initialize: [wreg+status,2]
  3436                           
  3437                           
  3438                           ;mcc_generated_files/pin_manager.c: 60:     LATA = 0x00;
  3439  03F0  0022               	movlb	2	; select bank2
  3440  03F1  018C               	clrf	12	;volatile
  3441                           
  3442                           ;mcc_generated_files/pin_manager.c: 61:     LATC = 0x00;
  3443  03F2  018E               	clrf	14	;volatile
  3444  03F3                     l1488:
  3445                           
  3446                           ;mcc_generated_files/pin_manager.c: 66:     TRISA = 0x07;
  3447  03F3  3007               	movlw	7
  3448  03F4  0021               	movlb	1	; select bank1
  3449  03F5  008C               	movwf	12	;volatile
  3450  03F6                     l1490:
  3451                           
  3452                           ;mcc_generated_files/pin_manager.c: 67:     TRISC = 0x00;
  3453  03F6  018E               	clrf	14	;volatile
  3454  03F7                     l1492:
  3455                           
  3456                           ;mcc_generated_files/pin_manager.c: 72:     ANSELC = 0x00;
  3457  03F7  0023               	movlb	3	; select bank3
  3458  03F8  018E               	clrf	14	;volatile
  3459  03F9                     l1494:
  3460                           
  3461                           ;mcc_generated_files/pin_manager.c: 73:     ANSELA = 0x07;
  3462  03F9  3007               	movlw	7
  3463  03FA  008C               	movwf	12	;volatile
  3464                           
  3465                           ;mcc_generated_files/pin_manager.c: 78:     WPUA = 0x00;
  3466  03FB  0024               	movlb	4	; select bank4
  3467  03FC  018C               	clrf	12	;volatile
  3468                           
  3469                           ;mcc_generated_files/pin_manager.c: 79:     WPUC = 0x00;
  3470  03FD  018E               	clrf	14	;volatile
  3471  03FE                     l1496:
  3472                           
  3473                           ;mcc_generated_files/pin_manager.c: 80:     OPTION_REGbits.nWPUEN = 1;
  3474  03FE  0021               	movlb	1	; select bank1
  3475  03FF  1795               	bsf	21,7	;volatile
  3476                           
  3477                           ;mcc_generated_files/pin_manager.c: 85:     ODCONA = 0x00;
  3478  0400  0025               	movlb	5	; select bank5
  3479  0401  018C               	clrf	12	;volatile
  3480                           
  3481                           ;mcc_generated_files/pin_manager.c: 86:     ODCONC = 0x00;
  3482  0402  018E               	clrf	14	;volatile
  3483  0403                     l1498:
  3484                           
  3485                           ;mcc_generated_files/pin_manager.c: 91:     SLRCONA = 0x37;
  3486  0403  3037               	movlw	55
  3487  0404  0026               	movlb	6	; select bank6
  3488  0405  008C               	movwf	12	;volatile
  3489  0406                     l1500:
  3490                           
  3491                           ;mcc_generated_files/pin_manager.c: 92:     SLRCONC = 0x3F;
  3492  0406  303F               	movlw	63
  3493  0407  008E               	movwf	14	;volatile
  3494  0408                     l1502:
  3495                           
  3496                           ;mcc_generated_files/pin_manager.c: 97:     INLVLA = 0x3F;
  3497  0408  303F               	movlw	63
  3498  0409  0027               	movlb	7	; select bank7
  3499  040A  008C               	movwf	12	;volatile
  3500  040B                     l1504:
  3501                           
  3502                           ;mcc_generated_files/pin_manager.c: 98:     INLVLC = 0x3F;
  3503  040B  303F               	movlw	63
  3504  040C  008E               	movwf	14	;volatile
  3505  040D                     l204:
  3506  040D  0008               	return
  3507  040E                     __end_of_PIN_MANAGER_Initialize:
  3508                           
  3509                           	psect	text10
  3510  04D2                     __ptext10:	
  3511 ;; *************** function _OSCILLATOR_Initialize *****************
  3512 ;; Defined at:
  3513 ;;		line 61 in file "mcc_generated_files/mcc.c"
  3514 ;; Parameters:    Size  Location     Type
  3515 ;;		None
  3516 ;; Auto vars:     Size  Location     Type
  3517 ;;		None
  3518 ;; Return value:  Size  Location     Type
  3519 ;;                  1    wreg      void 
  3520 ;; Registers used:
  3521 ;;		wreg, status,2
  3522 ;; Tracked objects:
  3523 ;;		On entry : 0/0
  3524 ;;		On exit  : 0/0
  3525 ;;		Unchanged: 0/0
  3526 ;; Data sizes:     COMMON   BANK0   BANK1   BANK2   BANK3   BANK4   BANK5   BANK6   BANK7   BANK8   BANK9  BANK10  BANK1
      +1  BANK12
  3527 ;;      Params:         0       0       0       0       0       0       0       0       0       0       0       0       
      +0       0
  3528 ;;      Locals:         0       0       0       0       0       0       0       0       0       0       0       0       
      +0       0
  3529 ;;      Temps:          0       0       0       0       0       0       0       0       0       0       0       0       
      +0       0
  3530 ;;      Totals:         0       0       0       0       0       0       0       0       0       0       0       0       
      +0       0
  3531 ;;Total ram usage:        0 bytes
  3532 ;; Hardware stack levels used: 1
  3533 ;; Hardware stack levels required when called: 6
  3534 ;; This function calls:
  3535 ;;		Nothing
  3536 ;; This function is called by:
  3537 ;;		_SYSTEM_Initialize
  3538 ;; This function uses a non-reentrant model
  3539 ;;
  3540                           
  3541                           
  3542                           ;psect for function _OSCILLATOR_Initialize
  3543  04D2                     _OSCILLATOR_Initialize:
  3544  04D2                     l1506:	
  3545                           ;incstack = 0
  3546                           ; Regs used in _OSCILLATOR_Initialize: [wreg+status,2]
  3547                           
  3548                           
  3549                           ;mcc_generated_files/mcc.c: 64:     OSCCON = 0x78;
  3550  04D2  3078               	movlw	120
  3551  04D3  0021               	movlb	1	; select bank1
  3552  04D4  0099               	movwf	25	;volatile
  3553  04D5                     l1508:
  3554                           
  3555                           ;mcc_generated_files/mcc.c: 66:     OSCSTAT = 0x00;
  3556  04D5  019A               	clrf	26	;volatile
  3557  04D6                     l1510:
  3558                           
  3559                           ;mcc_generated_files/mcc.c: 68:     OSCTUNE = 0x00;
  3560  04D6  0198               	clrf	24	;volatile
  3561  04D7                     l1512:
  3562                           
  3563                           ;mcc_generated_files/mcc.c: 70:     BORCON = 0x00;
  3564  04D7  0022               	movlb	2	; select bank2
  3565  04D8  0196               	clrf	22	;volatile
  3566  04D9                     l168:
  3567  04D9  0008               	return
  3568  04DA                     __end_of_OSCILLATOR_Initialize:
  3569                           
  3570                           	psect	text11
  3571  04FA                     __ptext11:	
  3572 ;; *************** function _DAC_Initialize *****************
  3573 ;; Defined at:
  3574 ;;		line 58 in file "mcc_generated_files/dac.c"
  3575 ;; Parameters:    Size  Location     Type
  3576 ;;		None
  3577 ;; Auto vars:     Size  Location     Type
  3578 ;;		None
  3579 ;; Return value:  Size  Location     Type
  3580 ;;                  1    wreg      void 
  3581 ;; Registers used:
  3582 ;;		wreg
  3583 ;; Tracked objects:
  3584 ;;		On entry : 0/0
  3585 ;;		On exit  : 0/0
  3586 ;;		Unchanged: 0/0
  3587 ;; Data sizes:     COMMON   BANK0   BANK1   BANK2   BANK3   BANK4   BANK5   BANK6   BANK7   BANK8   BANK9  BANK10  BANK1
      +1  BANK12
  3588 ;;      Params:         0       0       0       0       0       0       0       0       0       0       0       0       
      +0       0
  3589 ;;      Locals:         0       0       0       0       0       0       0       0       0       0       0       0       
      +0       0
  3590 ;;      Temps:          0       0       0       0       0       0       0       0       0       0       0       0       
      +0       0
  3591 ;;      Totals:         0       0       0       0       0       0       0       0       0       0       0       0       
      +0       0
  3592 ;;Total ram usage:        0 bytes
  3593 ;; Hardware stack levels used: 1
  3594 ;; Hardware stack levels required when called: 6
  3595 ;; This function calls:
  3596 ;;		Nothing
  3597 ;; This function is called by:
  3598 ;;		_SYSTEM_Initialize
  3599 ;; This function uses a non-reentrant model
  3600 ;;
  3601                           
  3602                           
  3603                           ;psect for function _DAC_Initialize
  3604  04FA                     _DAC_Initialize:
  3605  04FA                     l1484:	
  3606                           ;incstack = 0
  3607                           ; Regs used in _DAC_Initialize: [wreg]
  3608                           
  3609                           
  3610                           ;mcc_generated_files/dac.c: 61:     DAC1CON0 = 0x90;
  3611  04FA  3090               	movlw	144
  3612  04FB  0022               	movlb	2	; select bank2
  3613  04FC  0098               	movwf	24	;volatile
  3614                           
  3615                           ;mcc_generated_files/dac.c: 63:     DAC1CON1 = 0x33;
  3616  04FD  3033               	movlw	51
  3617  04FE  0099               	movwf	25	;volatile
  3618  04FF                     l113:
  3619  04FF  0008               	return
  3620  0500                     __end_of_DAC_Initialize:
  3621                           
  3622                           	psect	text12
  3623  02A9                     __ptext12:	
  3624 ;; *************** function _AttractFlash *****************
  3625 ;; Defined at:
  3626 ;;		line 114 in file "main.c"
  3627 ;; Parameters:    Size  Location     Type
  3628 ;;		None
  3629 ;; Auto vars:     Size  Location     Type
  3630 ;;  i               2    2[BANK0 ] int 
  3631 ;; Return value:  Size  Location     Type
  3632 ;;                  1    wreg      void 
  3633 ;; Registers used:
  3634 ;;		wreg, status,2
  3635 ;; Tracked objects:
  3636 ;;		On entry : 0/0
  3637 ;;		On exit  : 0/0
  3638 ;;		Unchanged: 0/0
  3639 ;; Data sizes:     COMMON   BANK0   BANK1   BANK2   BANK3   BANK4   BANK5   BANK6   BANK7   BANK8   BANK9  BANK10  BANK1
      +1  BANK12
  3640 ;;      Params:         0       0       0       0       0       0       0       0       0       0       0       0       
      +0       0
  3641 ;;      Locals:         0       2       0       0       0       0       0       0       0       0       0       0       
      +0       0
  3642 ;;      Temps:          0       2       0       0       0       0       0       0       0       0       0       0       
      +0       0
  3643 ;;      Totals:         0       4       0       0       0       0       0       0       0       0       0       0       
      +0       0
  3644 ;;Total ram usage:        4 bytes
  3645 ;; Hardware stack levels used: 1
  3646 ;; Hardware stack levels required when called: 6
  3647 ;; This function calls:
  3648 ;;		Nothing
  3649 ;; This function is called by:
  3650 ;;		_main
  3651 ;; This function uses a non-reentrant model
  3652 ;;
  3653                           
  3654                           
  3655                           ;psect for function _AttractFlash
  3656  02A9                     _AttractFlash:
  3657  02A9                     l1644:	
  3658                           ;incstack = 0
  3659                           ; Regs used in _AttractFlash: [wreg+status,2]
  3660                           
  3661                           
  3662                           ;main.c: 115:     for (int i=0; i<6; i++){
  3663  02A9  0020               	movlb	0	; select bank0
  3664  02AA  01A2               	clrf	AttractFlash@i
  3665  02AB  01A3               	clrf	AttractFlash@i+1
  3666  02AC                     l334:	
  3667                           ;main.c: 116:         do { LATAbits.LATA4 = 1; } while(0);
  3668                           
  3669  02AC  0022               	movlb	2	; select bank2
  3670  02AD  160C               	bsf	12,4	;volatile
  3671  02AE                     l336:	
  3672                           ;main.c: 117:         do { LATAbits.LATA5 = 1; } while(0);
  3673                           
  3674  02AE  168C               	bsf	12,5	;volatile
  3675  02AF                     l1650:
  3676                           
  3677                           ;main.c: 118:         _delay((unsigned long)((250)*(16000000/4000.0)));
  3678  02AF  3006               	movlw	6
  3679  02B0  0020               	movlb	0	; select bank0
  3680  02B1  00A1               	movwf	??_AttractFlash+1
  3681  02B2  3013               	movlw	19
  3682  02B3  00A0               	movwf	??_AttractFlash
  3683  02B4  30AD               	movlw	173
  3684  02B5                     u1087:
  3685  02B5  0B89               	decfsz	9,f
  3686  02B6  2AB5               	goto	u1087
  3687  02B7  0BA0               	decfsz	??_AttractFlash,f
  3688  02B8  2AB5               	goto	u1087
  3689  02B9  0BA1               	decfsz	??_AttractFlash+1,f
  3690  02BA  2AB5               	goto	u1087
  3691  02BB  3200               	nop2
  3692  02BC                     l1652:
  3693  02BC  0022               	movlb	2	; select bank2
  3694  02BD  120C               	bcf	12,4	;volatile
  3695  02BE                     l1654:
  3696  02BE  128C               	bcf	12,5	;volatile
  3697  02BF                     l341:
  3698                           
  3699                           ;main.c: 121:         _delay((unsigned long)((500)*(16000000/4000.0)));
  3700  02BF  300B               	movlw	11
  3701  02C0  0020               	movlb	0	; select bank0
  3702  02C1  00A1               	movwf	??_AttractFlash+1
  3703  02C2  3026               	movlw	38
  3704  02C3  00A0               	movwf	??_AttractFlash
  3705  02C4  305D               	movlw	93
  3706  02C5                     u1097:
  3707  02C5  0B89               	decfsz	9,f
  3708  02C6  2AC5               	goto	u1097
  3709  02C7  0BA0               	decfsz	??_AttractFlash,f
  3710  02C8  2AC5               	goto	u1097
  3711  02C9  0BA1               	decfsz	??_AttractFlash+1,f
  3712  02CA  2AC5               	goto	u1097
  3713  02CB  3200               	nop2
  3714                           
  3715                           ;main.c: 122:     }
  3716  02CC  3001               	movlw	1
  3717  02CD  0020               	movlb	0	; select bank0
  3718  02CE  07A2               	addwf	AttractFlash@i,f
  3719  02CF  3000               	movlw	0
  3720  02D0  3DA3               	addwfc	AttractFlash@i+1,f
  3721  02D1  0823               	movf	AttractFlash@i+1,w
  3722  02D2  3A80               	xorlw	128
  3723  02D3  00A0               	movwf	??_AttractFlash
  3724  02D4  3080               	movlw	128
  3725  02D5  0220               	subwf	??_AttractFlash,w
  3726  02D6  1D03               	skipz
  3727  02D7  2ADA               	goto	u825
  3728  02D8  3006               	movlw	6
  3729  02D9  0222               	subwf	AttractFlash@i,w
  3730  02DA                     u825:
  3731  02DA  1C03               	skipc
  3732  02DB  2ADD               	goto	u821
  3733  02DC  2ADE               	goto	u820
  3734  02DD                     u821:
  3735  02DD  2AAC               	goto	l334
  3736  02DE                     u820:
  3737  02DE                     l342:
  3738  02DE  0008               	return
  3739  02DF                     __end_of_AttractFlash:
  3740                           
  3741                           	psect	text13
  3742  015C                     __ptext13:	
  3743 ;; *************** function _AttractFire *****************
  3744 ;; Defined at:
  3745 ;;		line 81 in file "main.c"
  3746 ;; Parameters:    Size  Location     Type
  3747 ;;		None
  3748 ;; Auto vars:     Size  Location     Type
  3749 ;;  i               2    2[BANK0 ] int 
  3750 ;; Return value:  Size  Location     Type
  3751 ;;                  1    wreg      void 
  3752 ;; Registers used:
  3753 ;;		wreg, status,2, status,0
  3754 ;; Tracked objects:
  3755 ;;		On entry : 0/0
  3756 ;;		On exit  : 0/0
  3757 ;;		Unchanged: 0/0
  3758 ;; Data sizes:     COMMON   BANK0   BANK1   BANK2   BANK3   BANK4   BANK5   BANK6   BANK7   BANK8   BANK9  BANK10  BANK1
      +1  BANK12
  3759 ;;      Params:         0       0       0       0       0       0       0       0       0       0       0       0       
      +0       0
  3760 ;;      Locals:         0       2       0       0       0       0       0       0       0       0       0       0       
      +0       0
  3761 ;;      Temps:          0       2       0       0       0       0       0       0       0       0       0       0       
      +0       0
  3762 ;;      Totals:         0       4       0       0       0       0       0       0       0       0       0       0       
      +0       0
  3763 ;;Total ram usage:        4 bytes
  3764 ;; Hardware stack levels used: 1
  3765 ;; Hardware stack levels required when called: 6
  3766 ;; This function calls:
  3767 ;;		Nothing
  3768 ;; This function is called by:
  3769 ;;		_main
  3770 ;; This function uses a non-reentrant model
  3771 ;;
  3772                           
  3773                           
  3774                           ;psect for function _AttractFire
  3775  015C                     _AttractFire:
  3776  015C                     l1592:	
  3777                           ;incstack = 0
  3778                           ; Regs used in _AttractFire: [wreg+status,2+status,0]
  3779                           
  3780                           
  3781                           ;main.c: 82:     AudioAddress = RapidFire.startAddress;
  3782  015C  0020               	movlb	0	; select bank0
  3783  015D  0839               	movf	_RapidFire+1,w
  3784  015E  00FA               	movwf	_AudioAddress+1
  3785  015F  0838               	movf	_RapidFire,w
  3786  0160  00F9               	movwf	_AudioAddress
  3787                           
  3788                           ;main.c: 83:     AudioEndAddress = RapidFire.endAddress;
  3789  0161  083B               	movf	_RapidFire+3,w
  3790  0162  00CA               	movwf	_AudioEndAddress+1
  3791  0163  083A               	movf	_RapidFire+2,w
  3792  0164  00C9               	movwf	_AudioEndAddress
  3793  0165                     l1594:
  3794                           
  3795                           ;main.c: 84:     AudioActive = 1;
  3796  0165  01FB               	clrf	_AudioActive
  3797  0166  0AFB               	incf	_AudioActive,f
  3798  0167                     l1596:
  3799  0167  0022               	movlb	2	; select bank2
  3800  0168  120C               	bcf	12,4	;volatile
  3801  0169                     l1598:
  3802  0169  128C               	bcf	12,5	;volatile
  3803  016A                     l301:
  3804                           
  3805                           ;main.c: 88:     _delay((unsigned long)((1200)*(16000000/4000.0)));
  3806  016A  3019               	movlw	25
  3807  016B  0020               	movlb	0	; select bank0
  3808  016C  00A1               	movwf	??_AttractFire+1
  3809  016D  305A               	movlw	90
  3810  016E  00A0               	movwf	??_AttractFire
  3811  016F  30B1               	movlw	177
  3812  0170                     u1107:
  3813  0170  0B89               	decfsz	9,f
  3814  0171  2970               	goto	u1107
  3815  0172  0BA0               	decfsz	??_AttractFire,f
  3816  0173  2970               	goto	u1107
  3817  0174  0BA1               	decfsz	??_AttractFire+1,f
  3818  0175  2970               	goto	u1107
  3819  0176  3200               	nop2
  3820  0177                     l1600:
  3821                           
  3822                           ;main.c: 89:     for (int i=0; i<13; i++){
  3823  0177  0020               	movlb	0	; select bank0
  3824  0178  01A2               	clrf	AttractFire@i
  3825  0179  01A3               	clrf	AttractFire@i+1
  3826  017A                     l1606:
  3827                           
  3828                           ;main.c: 90:         _delay((unsigned long)((100)*(16000000/4000.0)));
  3829  017A  3003               	movlw	3
  3830  017B  0020               	movlb	0	; select bank0
  3831  017C  00A1               	movwf	??_AttractFire+1
  3832  017D  3008               	movlw	8
  3833  017E  00A0               	movwf	??_AttractFire
  3834  017F  3077               	movlw	119
  3835  0180                     u1117:
  3836  0180  0B89               	decfsz	9,f
  3837  0181  2980               	goto	u1117
  3838  0182  0BA0               	decfsz	??_AttractFire,f
  3839  0183  2980               	goto	u1117
  3840  0184  0BA1               	decfsz	??_AttractFire+1,f
  3841  0185  2980               	goto	u1117
  3842  0186                     l1608:
  3843  0186  0022               	movlb	2	; select bank2
  3844  0187  160C               	bsf	12,4	;volatile
  3845  0188                     l1610:
  3846  0188  168C               	bsf	12,5	;volatile
  3847  0189                     l307:
  3848                           
  3849                           ;main.c: 93:         _delay((unsigned long)((100)*(16000000/4000.0)));
  3850  0189  3003               	movlw	3
  3851  018A  0020               	movlb	0	; select bank0
  3852  018B  00A1               	movwf	??_AttractFire+1
  3853  018C  3008               	movlw	8
  3854  018D  00A0               	movwf	??_AttractFire
  3855  018E  3077               	movlw	119
  3856  018F                     u1127:
  3857  018F  0B89               	decfsz	9,f
  3858  0190  298F               	goto	u1127
  3859  0191  0BA0               	decfsz	??_AttractFire,f
  3860  0192  298F               	goto	u1127
  3861  0193  0BA1               	decfsz	??_AttractFire+1,f
  3862  0194  298F               	goto	u1127
  3863  0195                     l1612:
  3864  0195  0022               	movlb	2	; select bank2
  3865  0196  120C               	bcf	12,4	;volatile
  3866  0197                     l1614:
  3867  0197  128C               	bcf	12,5	;volatile
  3868  0198                     l311:
  3869                           
  3870                           ;main.c: 96:     }
  3871  0198  3001               	movlw	1
  3872  0199  0020               	movlb	0	; select bank0
  3873  019A  07A2               	addwf	AttractFire@i,f
  3874  019B  3000               	movlw	0
  3875  019C  3DA3               	addwfc	AttractFire@i+1,f
  3876  019D  0823               	movf	AttractFire@i+1,w
  3877  019E  3A80               	xorlw	128
  3878  019F  00A0               	movwf	??_AttractFire
  3879  01A0  3080               	movlw	128
  3880  01A1  0220               	subwf	??_AttractFire,w
  3881  01A2  1D03               	skipz
  3882  01A3  29A6               	goto	u765
  3883  01A4  300D               	movlw	13
  3884  01A5  0222               	subwf	AttractFire@i,w
  3885  01A6                     u765:
  3886  01A6  1C03               	skipc
  3887  01A7  29A9               	goto	u761
  3888  01A8  29AA               	goto	u760
  3889  01A9                     u761:
  3890  01A9  297A               	goto	l1606
  3891  01AA                     u760:
  3892  01AA  29B7               	goto	l1618
  3893  01AB                     l1616:
  3894  01AB  3003               	movlw	3
  3895  01AC  0020               	movlb	0	; select bank0
  3896  01AD  00A1               	movwf	??_AttractFire+1
  3897  01AE  3008               	movlw	8
  3898  01AF  00A0               	movwf	??_AttractFire
  3899  01B0  3077               	movlw	119
  3900  01B1                     u1137:
  3901  01B1  0B89               	decfsz	9,f
  3902  01B2  29B1               	goto	u1137
  3903  01B3  0BA0               	decfsz	??_AttractFire,f
  3904  01B4  29B1               	goto	u1137
  3905  01B5  0BA1               	decfsz	??_AttractFire+1,f
  3906  01B6  29B1               	goto	u1137
  3907  01B7                     l1618:
  3908  01B7  087B               	movf	_AudioActive,w
  3909  01B8  1D03               	btfss	3,2
  3910  01B9  29BB               	goto	u771
  3911  01BA  29BC               	goto	u770
  3912  01BB                     u771:
  3913  01BB  29AB               	goto	l1616
  3914  01BC                     u770:
  3915  01BC                     l315:
  3916  01BC  0008               	return
  3917  01BD                     __end_of_AttractFire:
  3918                           
  3919                           	psect	text14
  3920  0213                     __ptext14:	
  3921 ;; *************** function _AttractAbduct *****************
  3922 ;; Defined at:
  3923 ;;		line 100 in file "main.c"
  3924 ;; Parameters:    Size  Location     Type
  3925 ;;		None
  3926 ;; Auto vars:     Size  Location     Type
  3927 ;;  i               2    2[BANK0 ] int 
  3928 ;; Return value:  Size  Location     Type
  3929 ;;                  1    wreg      void 
  3930 ;; Registers used:
  3931 ;;		wreg, status,2, status,0
  3932 ;; Tracked objects:
  3933 ;;		On entry : 0/0
  3934 ;;		On exit  : 0/0
  3935 ;;		Unchanged: 0/0
  3936 ;; Data sizes:     COMMON   BANK0   BANK1   BANK2   BANK3   BANK4   BANK5   BANK6   BANK7   BANK8   BANK9  BANK10  BANK1
      +1  BANK12
  3937 ;;      Params:         0       0       0       0       0       0       0       0       0       0       0       0       
      +0       0
  3938 ;;      Locals:         0       2       0       0       0       0       0       0       0       0       0       0       
      +0       0
  3939 ;;      Temps:          0       2       0       0       0       0       0       0       0       0       0       0       
      +0       0
  3940 ;;      Totals:         0       4       0       0       0       0       0       0       0       0       0       0       
      +0       0
  3941 ;;Total ram usage:        4 bytes
  3942 ;; Hardware stack levels used: 1
  3943 ;; Hardware stack levels required when called: 6
  3944 ;; This function calls:
  3945 ;;		Nothing
  3946 ;; This function is called by:
  3947 ;;		_main
  3948 ;; This function uses a non-reentrant model
  3949 ;;
  3950                           
  3951                           
  3952                           ;psect for function _AttractAbduct
  3953  0213                     _AttractAbduct:
  3954  0213                     l1620:	
  3955                           ;incstack = 0
  3956                           ; Regs used in _AttractAbduct: [wreg+status,2+status,0]
  3957                           
  3958                           
  3959                           ;main.c: 101:     AudioAddress = AlienAbduction.startAddress;
  3960  0213  0020               	movlb	0	; select bank0
  3961  0214  0835               	movf	_AlienAbduction+1,w
  3962  0215  00FA               	movwf	_AudioAddress+1
  3963  0216  0834               	movf	_AlienAbduction,w
  3964  0217  00F9               	movwf	_AudioAddress
  3965                           
  3966                           ;main.c: 102:     AudioEndAddress = AlienAbduction.endAddress;
  3967  0218  0837               	movf	_AlienAbduction+3,w
  3968  0219  00CA               	movwf	_AudioEndAddress+1
  3969  021A  0836               	movf	_AlienAbduction+2,w
  3970  021B  00C9               	movwf	_AudioEndAddress
  3971  021C                     l1622:
  3972                           
  3973                           ;main.c: 103:     AudioActive = 1;
  3974  021C  01FB               	clrf	_AudioActive
  3975  021D  0AFB               	incf	_AudioActive,f
  3976  021E                     l1624:
  3977  021E  0022               	movlb	2	; select bank2
  3978  021F  160C               	bsf	12,4	;volatile
  3979  0220                     l1626:
  3980                           
  3981                           ;main.c: 106:     for (int i=0; i<7; i++){
  3982  0220  0020               	movlb	0	; select bank0
  3983  0221  01A2               	clrf	AttractAbduct@i
  3984  0222  01A3               	clrf	AttractAbduct@i+1
  3985  0223                     l1632:
  3986                           
  3987                           ;main.c: 107:         _delay((unsigned long)((200)*(16000000/4000.0)));
  3988  0223  3005               	movlw	5
  3989  0224  0020               	movlb	0	; select bank0
  3990  0225  00A1               	movwf	??_AttractAbduct+1
  3991  0226  300F               	movlw	15
  3992  0227  00A0               	movwf	??_AttractAbduct
  3993  0228  30F1               	movlw	241
  3994  0229                     u1147:
  3995  0229  0B89               	decfsz	9,f
  3996  022A  2A29               	goto	u1147
  3997  022B  0BA0               	decfsz	??_AttractAbduct,f
  3998  022C  2A29               	goto	u1147
  3999  022D  0BA1               	decfsz	??_AttractAbduct+1,f
  4000  022E  2A29               	goto	u1147
  4001  022F                     l1634:
  4002  022F  1003               	clrc
  4003  0230  0022               	movlb	2	; select bank2
  4004  0231  1E8C               	btfss	12,5	;volatile
  4005  0232  1403               	setc
  4006  0233  1803               	btfsc	3,0
  4007  0234  2A36               	goto	u781
  4008  0235  2A39               	goto	u780
  4009  0236                     u781:
  4010  0236  0022               	movlb	2	; select bank2
  4011  0237  168C               	bsf	12,5	;volatile
  4012  0238  2A3B               	goto	u794
  4013  0239                     u780:
  4014  0239  0022               	movlb	2	; select bank2
  4015  023A  128C               	bcf	12,5	;volatile
  4016  023B                     u794:
  4017  023B                     l1636:
  4018                           
  4019                           ;main.c: 109:     }
  4020  023B  3001               	movlw	1
  4021  023C  0020               	movlb	0	; select bank0
  4022  023D  07A2               	addwf	AttractAbduct@i,f
  4023  023E  3000               	movlw	0
  4024  023F  3DA3               	addwfc	AttractAbduct@i+1,f
  4025  0240                     l1638:
  4026  0240  0823               	movf	AttractAbduct@i+1,w
  4027  0241  3A80               	xorlw	128
  4028  0242  00A0               	movwf	??_AttractAbduct
  4029  0243  3080               	movlw	128
  4030  0244  0220               	subwf	??_AttractAbduct,w
  4031  0245  1D03               	skipz
  4032  0246  2A49               	goto	u805
  4033  0247  3007               	movlw	7
  4034  0248  0222               	subwf	AttractAbduct@i,w
  4035  0249                     u805:
  4036  0249  1C03               	skipc
  4037  024A  2A4C               	goto	u801
  4038  024B  2A4D               	goto	u800
  4039  024C                     u801:
  4040  024C  2A23               	goto	l1632
  4041  024D                     u800:
  4042  024D                     l324:	
  4043                           ;main.c: 110:     do { LATAbits.LATA4 = 0; } while(0);
  4044                           
  4045  024D  0022               	movlb	2	; select bank2
  4046  024E  120C               	bcf	12,4	;volatile
  4047  024F  2A5C               	goto	l1642
  4048  0250                     l1640:
  4049  0250  3003               	movlw	3
  4050  0251  0020               	movlb	0	; select bank0
  4051  0252  00A1               	movwf	??_AttractAbduct+1
  4052  0253  3008               	movlw	8
  4053  0254  00A0               	movwf	??_AttractAbduct
  4054  0255  3077               	movlw	119
  4055  0256                     u1157:
  4056  0256  0B89               	decfsz	9,f
  4057  0257  2A56               	goto	u1157
  4058  0258  0BA0               	decfsz	??_AttractAbduct,f
  4059  0259  2A56               	goto	u1157
  4060  025A  0BA1               	decfsz	??_AttractAbduct+1,f
  4061  025B  2A56               	goto	u1157
  4062  025C                     l1642:
  4063  025C  087B               	movf	_AudioActive,w
  4064  025D  1D03               	btfss	3,2
  4065  025E  2A60               	goto	u811
  4066  025F  2A61               	goto	u810
  4067  0260                     u811:
  4068  0260  2A50               	goto	l1640
  4069  0261                     u810:
  4070  0261                     l329:
  4071  0261  0008               	return
  4072  0262                     __end_of_AttractAbduct:
  4073                           
  4074                           	psect	text15
  4075  01BD                     __ptext15:	
  4076 ;; *************** function _AlienLaugh *****************
  4077 ;; Defined at:
  4078 ;;		line 63 in file "main.c"
  4079 ;; Parameters:    Size  Location     Type
  4080 ;;		None
  4081 ;; Auto vars:     Size  Location     Type
  4082 ;;  i               2    2[BANK0 ] int 
  4083 ;; Return value:  Size  Location     Type
  4084 ;;                  1    wreg      void 
  4085 ;; Registers used:
  4086 ;;		wreg, status,2, status,0
  4087 ;; Tracked objects:
  4088 ;;		On entry : 0/0
  4089 ;;		On exit  : 0/0
  4090 ;;		Unchanged: 0/0
  4091 ;; Data sizes:     COMMON   BANK0   BANK1   BANK2   BANK3   BANK4   BANK5   BANK6   BANK7   BANK8   BANK9  BANK10  BANK1
      +1  BANK12
  4092 ;;      Params:         0       0       0       0       0       0       0       0       0       0       0       0       
      +0       0
  4093 ;;      Locals:         0       2       0       0       0       0       0       0       0       0       0       0       
      +0       0
  4094 ;;      Temps:          0       2       0       0       0       0       0       0       0       0       0       0       
      +0       0
  4095 ;;      Totals:         0       4       0       0       0       0       0       0       0       0       0       0       
      +0       0
  4096 ;;Total ram usage:        4 bytes
  4097 ;; Hardware stack levels used: 1
  4098 ;; Hardware stack levels required when called: 6
  4099 ;; This function calls:
  4100 ;;		Nothing
  4101 ;; This function is called by:
  4102 ;;		_main
  4103 ;; This function uses a non-reentrant model
  4104 ;;
  4105                           
  4106                           
  4107                           ;psect for function _AlienLaugh
  4108  01BD                     _AlienLaugh:
  4109  01BD                     l1564:	
  4110                           ;incstack = 0
  4111                           ; Regs used in _AlienLaugh: [wreg+status,2+status,0]
  4112                           
  4113                           
  4114                           ;main.c: 64:     AudioAddress = AlienCreep.startAddress;
  4115  01BD  0020               	movlb	0	; select bank0
  4116  01BE  083D               	movf	_AlienCreep+1,w
  4117  01BF  00FA               	movwf	_AudioAddress+1
  4118  01C0  083C               	movf	_AlienCreep,w
  4119  01C1  00F9               	movwf	_AudioAddress
  4120                           
  4121                           ;main.c: 65:     AudioEndAddress = AlienCreep.endAddress;
  4122  01C2  083F               	movf	_AlienCreep+3,w
  4123  01C3  00CA               	movwf	_AudioEndAddress+1
  4124  01C4  083E               	movf	_AlienCreep+2,w
  4125  01C5  00C9               	movwf	_CudhoEn$Adtrgss
  4127  01C6             !     ! l1566:
  4127"                         `
  4128                 $       ( ;maijnc: 6:     AudIoAc5ive = 1;
  419  01C6  01FÂ               	clrf	_AudioActive
  4130  01C7  0QFB               	inCf	_AudioActivE,&
  4171  °1C8            0       !l1568:
  4102  01C8  0002               	mïvlb	2	; sglegä b!nk2
  4133  0qS9  120C               	bcf	12,6	;volatile
  4134  01CA            `"       l1570
  4135  01CA  128C               	bcf	1r,5	;volatile
  4136  °1SB      $  !           l1572:
  4137 0         (               
  4138           0      $        ;mamj.c: 70z     for (int i=0; i<4; i++){
  4139  01KB  0020               	movlb	0; sdlect bank0
  4140  01KC  01A20              	clrf	AlienLaugh@i
 04141  01CD  41A3               	clrf	AlienLawgx@i+1
 (4142  01C                  0  l1578:
  41´3       $ `!                  6144       (                   ?main®c: 71:         _dela}((unsigned long)((1%0)*(1600000 /4000.0+));
  <145  01CE  3004       !       	motlw	4
  446 !01cf  0020   (           	movlb	0	; select!benk0
  4147  01D4  00A1               	-ovwf	??_AlienLaugh+1M
  4148  01D1  300C               	movlu	1"
  41491 01D2  00A0               	mo6wæ	??_A|ienLaõgh
  4150  01D3  3033               	mkvlu	51
  4151¨(01D<                0    õ1127:
  4152  01D4  0B89              $	deãfsz	9,f
  4153  01D5  29L4               	goto	u1167
  4154  01D6  0BA0          "    	dEcfsz	??_AliejLaugh,&
  4q55  01D7 !29D4             ! 	goto	u1167
  415v  01D8  0BA1               	decfsz	??_AlienLaugh+1,f
  4157  01D9  29D4         #     goto	u1167
  415¸  01DA  3200     $         	nop2
  4159  01DB                 `   m1580:
  4160  01Db  0022      !        	movlb	2	; sel%ct bank2
  4161! 01DC  160C               	bsf	12(4	;volatile
  4362  01DD                  0  l1%82:
  4123  01DD  168C               	bsf	12,5	;folatile-
  4164  01DE      "         0    l287:
  4165   `            `          
  4166                           ;main®C: 74:        0_delay( uns)gned long)((160)*(16000000/4000.0)));
  4147 $01DE  300t            !!(	movlw	4$ 4168  01DF  p020     $         	movlb0	; select bank0
  4169" 05E0  00A1              (	mO6vf	??_AlienLaughk1
  41·0  01E1  3040               	morlw	>4
  4171  P1E2 #00E0               Imovwf	??_AlienLaucè
  4172  01E3  3026               	movlw	38
  4173 $01E4       "             u117w:
  4174  01E4  0B89               	decfsz	9,f
  4175  01E5  29E4    !     (    	goto	u1177
 `176  01E2  0BA0$              ddcfsz	??ElienLauGh,f
  4177  01E  29E4               	goTo	}1177
  4078  01E8  0A1 "    $ $      	d$cfsz?=_AlienLaugh+1¬f
  41'9  01E9  29E4               	goto	u11?7
  4180 (11EA  p000 0             	nop
  4181  01EB        "        `   l1584:
  4182` 01UR  0022               	movlb	2	{ select bank2
  4183  01EC  120C               	bcf	12,<	;volátile
  41:4  01ED        `         "  l1586:
  41850 0!ED  128C               	bcf	12,4	;volatile
  4186  01EG "     0  "          l"91)
  4187 (                           4188                     "     ;main.c: 77:     }
  4189  01EE 03001     $         	movlw	1
  4190  01EF  0020               	movlb	0	; select cank0
  411  01F0  07A2             ! 	addwf	AlienÌaugh@i<f
  192  01F1  3000     0      "  	mOvlw	1
  4193! 01F2  3DA;    `          	addwfc	AliunLaugh@i+1$f  4194  01F3  0823 `        !    	movf	AlienNaugh@i+1,w
  4195  01F$  3A80        (      	xornw	128
  4196  0F5  00A0             0 	mOvwf	7?_AlienLaugh
  497  016  3080          (    	moflw	12(
  4198  01F7  0220               	subwf	??_AlienLaugi,w
  4q99  1F8  1D03              à	skipz
  4200  01F9  29VC               	got/	u755
  4201  01FA  30°4       (       	movdw	4
  4202  01FB  222 0             )subwf	AlienLaughDi,w
 "4203  01FB                     u747:
  4204  01FC$ 1C03               	skapc
  4205  01FD  29FF               	goto	u741
  4206  01FE  2A00               	goto	u740
  4207  01FF$                    u741:
  4208  01FF  29CE   "           	goto	l9570
  4209  020p            ` $      u74p:
  4210  0200  2A0T               	gotoIl1590
  4211  0201           0         l1588:
( 4212  0201  3003               	mo6lw	3
  4213  0202  0020         !     	Movlb	0	; select bank0
  421  0203  00A1               	movwf	??_AlienLa}gh+1
  4215  0205  3008               	movlw	8
  421¾  $:05  80A0            ¢  	movwf	??_AléenLaugh
  4017  0206  3077       `    `  	movlw	119
  4218  0607             (       u1187:
  421y  0217  0B09               	decfsz	9lf
` 4220" 0208  :A07               	goto	u1187
  =221  0209  0BA0               	decfsz	??_AlienLaugh,f
  4222  020A  2A07               	gouo	u1187
  4223  020B  0BA1               	decfszI??_AlienLqugI+1,f (4224  020C  A07   (          	goto	u018
  4225  020D$                    l190:
  4226  020D0 087B               	movf	_Au`ioACtivm,w
  4227  020E $1D0#               	btfss3,2
  4228  420F $A11    0         	goto	u751
  4229  0210  2A12"  `0    $!    	go4o	u750
  4230  0211  `           $     $u551:
  4231  0211  2A0  0   ,     $  	goto	l1588
  4232  212                   ` u750:
  433` 021²         (      `    m"95:
  4236  0212  0008               	return
  4235  2213            !        __end_nf_AlienLaugh:
  423>                           
$ 4237 (                    `"   	psåct	intantry
  5238  004                 0   _^pintentry:	
  4239 ;; ********+****** function _INTERUPT_InterruptManaglr ****.********
***
  4240 ;; Defined at:  424q :;		line 52 in file "mcc_generatet_æIles/inter2upt_manager.c"
  422 ;; Parameters:    Size  ocatioN     Type
  42´3 ;;		Non%
  4244 ;; Auto vars:     Size 0Location     Type
  4245 ;3		None
  4246 ;;`Return0vaLue:  Siz%  Locapion     Type
  4247 ;+          0   $ ` 1    reg      void 
  4248 + Registe2s used:
  4249 ;;		wrew, status,2, státu3,0, pclath, cstack
  4250 ;; Tracked objegts:
  4251 ;;	On entry : 0/0  4252 ;;		On exit  :(0/0
 (4253 ;#		Enchançed: 0/0
  4254 ;;,Data sizes*  (  CO-MON   ÂNK0   BANK1   BANK2   BANK3   BANK4   BANK5   BANK6 ! BANK7   BANK8   BANK9  BANk10( BANK1
      +1  BANK12
  4255 ;;      Params:         0              0       0       0h      0   0 ! 0       0       0       0   (   0  "    0       
      +0       0
  4256 ;;      Loaals2 0       0  0    0       8       0       0       0       0      !2       0       0       0       0!      
      +0       0
  0257 ;;      Ôemps:          0       0       0     ( 0       0       0       0 0  $  0       0   `   0       0  0    0       
      +0       0
( 4258 ;;(   ( Totals: `       0       0               0 "     0   $(  0       0       0 $   $ 0       0 (    00       0       
    " +0   "   0
  4259 ;;Totad ram usage:        0 bytes
  4260 ;; Hardwqre suack levels used: 1
  261 ;; Habdsare stack levels r%quired when callee: 4
  ´262 ;; This function calls:
  4263 ;;		_TMRq_ISR
  4264 ;3		_TMR2_IÓR
  4265 ;; This fuoction is calmed by:
  4266 ;;		Interrupt level 1
  4267 ;; T(is fUnctign uses a non-reentrant lodel
  4268 ;;
  426"                          
  4270  0004          "       (  _INTERRUPT_InterruptManagår:
  4271                           
0 4272                "          ;incstack = 0
  4273  0004  147E   "           bsf	int$flags,0	:set colpiler interrupt fl`g (,evel 1)
  4264                        $  
  4275          "                ; Regs used in _INTERRUPT_InterruptManager:0[wreg+wtatus,2+statuó,0+pclath+kstack]
 $4376 !0005  31800              	pawesel	$
  0277  0006                     i1l164:
  4270 `                 "       
  4279                           ;mgc_gEnerated_files/interrupt_menager.c: 5=:     )f(INTCONbits.PEIE == 1)
  420  0006  1F0B        !      	btfss11,6	;volatihe
  4281  0007  2849       $       	go|o	u84_21
  4282  0008  280A               got	u84_20
  4283   009                     u84_29:
  4284  0009  3(26 $ ((          	goôo	i1l140
  4285  000A!           0        u84_20:
  4286  000A                     i5l1666:
  4287           0   (           
  4r88                        $``9mcc_generated_diles/interru`t_manager.c: 56:     {;mcc_gunerated_files/interrutt_manage
      +     " (   `              r.c: 57:  "      if(PIE1bits.TMR2IE == 1 && PIR1cits.TMR2	F == 1)
 "4289` 000A   021   0      "    	movlb	1	; select bank1
  4298  000B  1C91    ! (        	btfss	17,1	;volatile  4291` 000C  20E               	goto	u(5_21
  4292  000D  280F             " 	goto	u95_20
  4293  000E  ` 0                u85_21:
  4r94  00 M $218      (        	goTo	i1l135
  4295  000F                     u85_20:
  429&  0 0F     "(              i1l1668:
  4297  00°F  0020    (          	movlb	0	? select bank 
  $298  0010  1C93               	btfss	17,0	;volatile
  4299  0011  2813   "           	goto	u86_21
  4300  0012  214    "  0       	goto	u86_20
  4301 "0013                     u86_21:*  4302  013  2818    (          	goto	i1l135
  4303  °014                     u86_20:
 $430<  0014                     i1l1670:
  4705                           
  4306                           ;mccWgenerated_Fildw/inter2upt_mcnager.c: 58:   )     {;mcc_generated_files/knterrupt_ma
      +                          nageò.c: 59:             TMR2_ISR(!;
  4307  0014  3184  2474$ #180  (	fcal|	_TMR2_ISR
  4308 $ (                       
  4309    !                (     ;mcc_geneRated_files/interrupt_manager.c: 60:         }*  4310  0017  2826       "       	goto	i1l14
  4311   018(                    i1l135:	
  4312    !                 (    ;mcc_genebated_byles/interzupt_manager.c* 61:   ( ! `!else!if(PIE1bits.TMR1IE }= 1 && pI
  "   +    $ `         @         R1bits*TMR0IF == 1)
$ 4313           `               
  4314  0018  0021              !	movlb	1	{ sclect bank1  4315  0019  9C11               	btfós	17,0	;volatile
  4316  001A  281C              $	goto	u7_21
  4317  001  2<1D               	goto	u87_20
 `4218` 00!C               (     u87_21:
  4319  001C  2826               	goto	i1l136
  $320  01D                     u87_20:
  4321  001D  `                  i1l1672:	
  4322  001D  0020               	movhb	0	; select bank0
  4323 $001E  1C11               	btf33	17,0	;volatale
  4324  00!F  2821               	goto	u88_21
  4325  0020  2822   $         ` 	ç/to	u88_20
  0326" 0021!0     `             u88_21:
  4125   021$(2826              `	goto	i1m136
  4328  0022  !                  u88_20:
  4#29  0022                     i1h1674:
  4330     `    0                
0 4331 (                   `     ;mcc_generated_files/interrupt_mA~aegr.c: 62:         z;-cc_cdnerated_filas/interrupt_ma
      +        `                 nagerc:`6r: $!          TMR1WISP();-
  4332  0022  31=4  240·  3180   	fcall	_TER1_IsP
  4333       0             0     
  4334             !             ;mcc_generated]files/interrupt_manAger.#: 64:         }
  6335  0025  2826               	goto	i1l140
  4336$ 0026  0        "         k1l136:
  4337  0026       $             i1l140:	
  4338                           ;mcc_generated_files/interrupt_manager.c: 69:     }
  4339                           
  4340  0026  107E               	bcf	int$flags,0	;clear compiler interrupt flag (level 1)
  4341  0027  0009               	retfie
  4342  0028                     __end_of_INTERRUPT_InterruptManager:
  4343                           
  4344                           	psect	text17
  4345  0474                     __ptext17:	
  4346 ;; *************** function _TMR2_ISR *****************
  4347 ;; Defined at:
  4348 ;;		line 119 in file "mcc_generated_files/tmr2.c"
  4349 ;; Parameters:    Size  Location     Type
  4350 ;;		None
  4351 ;; Auto vars:     Size  Location     Type
  4352 ;;		None
  4353 ;; Return value:  Size  Location     Type
  4354 ;;                  1    wreg      void 
  4355 ;; Registers used:
  4356 ;;		wreg, status,2, status,0, pclath, cstack
  4357 ;; Tracked objects:
  4358 ;;		On entry : 0/0
  4359 ;;		On exit  : 0/0
  4360 ;;		Unchanged: 0/0J  4361 ;; Äata sizes:     COMMON   BANK0   RANK1   BANO2   BALK3   @ANK4   BANK5   BANK6  "BANK7   BANK8   ÂANK9  BANË10  BANK1
      +1 $BANK12
  4362 ;;      Params:         0      (0       0       0       0              0       0       0      "0       0       0       
      +0  (    0
  t363 ;9      Locãls:         0       0       $      0       0       0               0 $     0$      8       0       0       
! 0   +0        
  4;64 ;/    ` TEmps:          0       0       0      $0       0       0       0       0               0              0       
   $  +1       0
  4365 ;;     $TnTals:         0       0       0       0       0       0 $     0       0       0       0       0       0$      
      +   "   0
  5366 ;;Uotal ram esagE:        0 bytes
 "4367 ;; HArdware stack`levels used: 1
  4368 ;; Hasdware st!ck levdls required when Called: 4
  4369 ;; T`is function calls:
 $4370 ;;	Absolute function
  4371 3;		_A}dioUpdape
  4372 ;;		_TMR2_DefaultIntDrruptHandler	
  4373 ; This function is called by:
  4374 ;;		_INTERRUPT_InterruptManager
  4375 ;; This function uses a non-reentrant model
  4376 ;;
  4377                           
  4378                           
  4379                           ;psect for function _TMR2_ISR
  4380  0474                     _TMR2_ISR:
  4381  0474                     i1l1556:	
  4382                           ;incstack = 0
  4383                           ; Regs used in _TMR2_ISR: [wreg+status,2+status,0+pclath+cstack]
  4384                           
  4385                           
  4386                           ;mcc_generated_files/tmr2.c: 123:     PIR1bits.TMR2IF = 0;
  4387  0474  0020               	movlb	0	; select bank0
  4388  0475  1091               	bcf	17,1	;volatile
  4389  0476                     i1l1558:
  4390                           
  4391                           ;mcc_generated_files/tmr2.c: 125:     if(TMR2_InterruptHandler)
  4392  0476  0843               	movf	_TMR2_InterruptHandler,w
  4393  0477  0444               	iorwf	_TMR2_InterruptHandler+1,w
  4394  0478  1903               	btfsc	3,2
  4395  0479  2C7B               	goto	u73_21
  4396  047A  2C7C               	goto	u73_20
  4397  047B                     u73_21:
  4398  047B  2C81               	goto	i1l100
  4399  047C                     u73_20:
  4400  047C                     i1l1560:
  4401                           
  4402                           ;mcc_generated_files/tmr2.c: 126:     {;mcc_generated_files/tmr2.c: 127:         TMR2_In
      +                          terruptHandler();
  4403  047C  0844               	movf	_TMR2_InterruptHandler+1,w
  4404  047D  008A               	movwf	10
  4405  047E  0843               	movf	_TMR2_InterruptHandler,w
  4406  047F  000A               	callw
  4407  0480  3184               	pagesel	$
  4408  0481                     i1l100:
  4409  0481  0008               	return
  4410  0482                     __end_of_TMR2_ISR:
  4411                           
  4412                           	psect	text18
  4413  03A3                     __ptext18:	
  4414 ;; *************** function _AudioUpdate *****************
  4415 ;; Defined at:
  4416 ;;		line 51 in file "main.c"
  4417 ;; Parameters:    Size  Location     Type
  4418 ;;		None
  4419 ;; Auto vars:     Size  Location     Type
  4420 ;;		None
  4421 ;; Return value:  Size  Location     Type
  4422 ;;                  1    wreg      void 
  4423 ;; Registers used:
  4424 ;;		wreg, status,2, status,0, pclath, cstack
  4425 ;; Tracked objects:
  4426 ;;		On entry : 0/0
  4427 ;;		On exit  : 0/0
  4428 ;;		Unchanged: 0/0
  4429 ;; Data sizes:     COMMON   BANK0   BANK1   BANK2   BANK3   BANK4   BANK5   BANK6   BANK7   BANK8   BANK9  BANK10  BANK1
      +1  BANK12
  4430 ;;      Params:         0       0       0       0       0       0       0       0       0       0       0       0       
      +0       0
  4431 ;;      Locals:         0       0       0       0       0       0       0       0       0       0       0       0       
      +0       0
  4432 ;;      Temps:          1       0       0       0       0       0       0       0       0       0       0       0       
      +0       0
  4433 ;;      Totals:         1       0       0       0       0       0       0       0       0       0       0       0       
      +0       0
  4434 ;;Total ram usage:        1 bytes
  4435 ;; Hardware stack levels used: 1
  4436 ;; Hardware stack levels required when called: 3
  4437 ;; This function calls:
  4438 ;;		_DAC_SetOutput
  4439 ;;		_EEPROM_ReadOneByte
  4440 ;; This function is called by:
  4441 ;;		_main
  4442 ;;		_TMR2_ISR
  4443 ;; This function uses a non-reentrant model
  4444 ;;
  4445                           
  4446                           
  4447                           ;psect for function _AudioUpdate
  4448  03A3                     _AudioUpdate:
  4449  03A3                     i1l1522:	
  4450                           ;incstack = 0
  4451                           ; Regs used in _AudioUpdate: [wreg+status,2+status,0+pclath+cstack]
  4452                           
  4453                           
  4454                           ;main.c: 52:     if (AudioActive){
  4455  03A3  087B               	movf	_AudioActive,w
  4456  03A4  1903               	btfsc	3,2
  4457  03A5  2BA7               	goto	u66_21
  4458  03A6  2BA8               	goto	u66_20
  4459  03A7                     u66_21:
  4460  03A7  2BCA               	goto	i1l275
  4461  03A8                     u66_20:
  4462  03A8                     i1l1524:
  4463                           
  4464                           ;main.c: 53:         Audio = EEPROM_ReadOneByte(AudioAddress);
  4465  03A8  087A               	movf	_AudioAddress+1,w
  4466  03A9  00F5               	movwf	EEPROM_ReadOneByte@AudioAddress+1
  4467  03AA  0879               	movf	_AudioAddress,w
  4468  03AB  00F4               	movwf	EEPROM_ReadOneByte@AudioAddress
  4469  03AC  3183  2348  3183   	fcall	_EEPROM_ReadOneByte
  4470  03AF  00F8               	movwf	??_AudioUpdate
  4471  03B0  0878               	movf	??_AudioUpdate,w
  4472  03B1  00FC               	movwf	_Audio
  4473                           
  4474                           ;main.c: 54:         DAC_SetOutput(Audio);
  4475  03B2  087C               	movf	_Audio,w
  4476  03B3  3185  2500  3183   	fcall	_DAC_SetOutput
  4477  03B6                     i1l1526:
  4478                           
  4479                           ;main.c: 55:         AudioAddress++;
  4480  03B6  3001               	movlw	1
  4481  03B7  07F9               	addwf	_AudioAddress,f
  4482  03B8  3000               	movlw	0
  4483  03B9  3DFA               	addwfc	_AudioAddress+1,f
  4484  03BA                     i1l1528:
  4485                           
  4486                           ;main.c: 56:         if(AudioAddress==AudioEndAddress){
  4487  03BA  0020               	movlb	0	; select bank0
  4488  03BB  084A               	movf	_AudioEndAddress+1,w
  4489  03BC  067A               	xorwf	_AudioAddress+1,w
  4490  03BD  1D03               	skipz
  4491  03BE  2BC1               	goto	u67_25
  4492  03BF  0849               	movf	_AudioEndAddress,w
  4493  03C0  0679               	xorwf	_AudioAddress,w
  4494  03C1                     u67_25:
  4495  03C1  1D03               	skipz
  4496  03C2  2BC4               	goto	u67_21
  4497  03C3  2BC5               	goto	u67_20
  4498  03C4                     u67_21:
  4499  03C4  2BCA               	goto	i1l275
  4500  03C5                     u67_20:
  4501  03C5                     i1l1530:
  4502                           
  4503                           ;main.c: 57:             AudioActive = 0;
  4504  03C5  01FB               	clrf	_AudioActive
  4505  03C6                     i1l1532:
  4506                           
  4507                           ;main.c: 58:             DAC_SetOutput(0x00);
  4508  03C6  3000               	movlw	0
  4509  03C7  3185  2500  3183   	fcall	_DAC_SetOutput
  4510  03CA                     i1l275:
  4511  03CA  0008               	return
  4512  03CB                     __end_of_AudioUpdate:
  4513                           
  4514                           	psect	text19
  4515  0509                     __ptext19:	
  4516 ;; *************** function _TMR2_DefaultInterruptHandler *****************
  4517 ;; Defined at:
  4518 ;;		line 136 in file "mcc_generated_files/tmr2.c"
  4519 ;; Parameters:    Size  Location     Type
  4520 ;;		None
  4521 ;; Auto vars:     Size  Location     Type
  4522 ;;		None
  4523 ;; Return value:  Size  Location     Type
  4524 ;;                  1    wreg      void 
  4525 ;; Registers used:
  4526 ;;		None
  4527 ;; Tracked objects:
  4528 ;;		On entry : 0/0
  4529 ;;		On exit  : 0/0
  4530 ;;		Unchanged: 0/0
  4531 ;; Data sizes:     COMMON   BANK0   BANK1   BANK2   BANK3   BANK4   BANK5   BANK6   BANK7   BANK8   BANK9  BANK10  BANK1
      +1  BANK12
  4532 ;;      Params:         0       0       0       0       0       0       0       0       0       0       0       0       
      +0       0
  4533 ;;      Locals:         0       0       0       0       0       0       0       0       0       0       0       0       
      +0       0
  4534 ;;      Temps:          0       0       0       0       0       0       0       0       0       0       0       0       
      +0       0
  4535 ;;      Totals:         0       0       0       0       0       0       0       0       0       0       0       0       
      +0       0
  4536 ;;Total ram usage:        0 bytes
  4537 ;; Hardware stack levels used: 1
  4538 ;; This function calls:
  4539 ;;		Nothing
  4540 ;; This function is called by:
  4541 ;;		_TMR2_Initialize
  4542 ;;		_TMR2_ISR
  4543 ;; This function uses a non-reentrant model
  4544 ;;
  4545                           
  4546                           
  4547                           ;psect for function _TMR2_DefaultInterruptHandler
  4548  0509                     _TMR2_DefaultInterruptHandler:
  4549  0509                     i1l106:	
  4550                           ;incstack = 0
  4551                           ; Regs used in _TMR2_DefaultInterruptHandler: []
  4552                           
  4553  0509  0008               	return
  4554  050A                     __end_of_TMR2_DefaultInterruptHandler:
  4555                           
  4556                           	psect	text20
  4557  0348                     __ptext20:	
  4558 ;; *************** function _EEPROM_ReadOneByte *****************
  4559 ;; Defined at:
  4560 ;;		line 4 in file "EEPROM_Driver.c"
  4561 ;; Parameters:    Size  Location     Type
  4562 ;;  AudioAddress    2    4[COMMON] unsigned short 
  4563 ;; Auto vars:     Size  Location     Type
  4564 ;;  y               1    7[COMMON] unsigned char 
  4565 ;; Return value:  Size  Location     Type
  4566 ;;                  1    wreg      unsigned char 
  4567 ;; Registers used:
  4568 ;;		wreg, status,2, status,0, pclath, cstack
  4569 ;; Tracked objects:
  4570 ;;		On entry : 0/0
  4571 ;;		On exit  : 0/0
  4572 ;;		Unchanged: 0/0
  4573 ;; Data sizes:     COMMON   BANK0   BANK1   BANK2   BANK3   BANK4   BANK5   BANK6   BANK7   BANK8   BANK9  BANK10  BANK1
      +1  BANK12
  4574 ;;      Params:         2       0       0       0       0       0       0       0       0       0       0       0       
      +0       0
  4575 ;;      Locals:         1       0       0       0       0       0       0       0       0       0       0       0       
      +0       0
  4576 ;;      Temps:          1       0       0       0       0       0       0       0       0       0       0       0       
      +0       0
  4577 ;;      Totals:         4       0       0       0       0       0       0       0       0       0       0       0       
      +0       0
  4578 ;;Total ram usage:        4 bytes
  4579 ;; Hardware stack levels used: 1
  4580 ;; Hardware stack levels required when called: 2
  4581 ;; This function calls:
  4582 ;;		_i2c_ack
  4583 ;;		_i2c_in_byte
  4584 ;;		_i2c_nack
  4585 ;;		_i2c_out_byte
  4586 ;;		_i2c_start
  4587 ;;		_i2c_stop
  4588 ;; This function is called by:
  4589 ;;		_AudioUpdate
  4590 ;; This function uses a non-reentrant model
  4591 ;;
  4592                           
  4593                           
  4594                           ;psect for function _EEPROM_ReadOneByte
  4595  0348                     _EEPROM_ReadOneByte:
  4596  0348                     i1l1436:	
  4597                           ;incstack = 0
  4598                           ; Regs used in _EEPROM_ReadOneByte: [wreg+status,2+status,0+pclath+cstack]
  4599                           
  4600                           
  4601                           ;EEPROM_Driver.c: 5:     uint8_t y;;EEPROM_Driver.c: 6:     i2c_start();
  4602  0348  3184  249C  3183   	fcall	_i2c_start
  4603                           
  4604                           ;EEPROM_Driver.c: 7:     i2c_out_byte(0b10100000);
  4605  034B  30A0               	movlw	160
  4606  034C  3183  23CB  3183   	fcall	_i2c_out_byte
  4607                           
  4608                           ;EEPROM_Driver.c: 8:     i2c_nack();
  4609  034F  3184  24B6  3183   	fcall	_i2c_nack
  4610                           
  4611                           ;EEPROM_Driver.c: 9:     i2c_out_byte((AudioAddress >> 8) & 0xff);
  4612  0352  0875               	movf	EEPROM_ReadOneByte@AudioAddress+1,w
  4613  0353  3183  23CB  3183   	fcall	_i2c_out_byte
  4614                           
  4615                           ;EEPROM_Driver.c: 10:     i2c_nack();
  4616  0356  3184  24B6  3183   	fcall	_i2c_nack
  4617                           
  4618                           ;EEPROM_Driver.c: 11:     i2c_out_byte(AudioAddress & 0xff);
  4619  0359  0874               	movf	EEPROM_ReadOneByte@AudioAddress,w
  4620  035A  3183  23CB  3183   	fcall	_i2c_out_byte
  4621                           
  4622                           ;EEPROM_Driver.c: 12:     i2c_nack();
  4623  035D  3184  24B6  3183   	fcall	_i2c_nack
  4624                           
  4625                           ;EEPROM_Driver.c: 13:     i2c_start();
  4626  0360  3184  249C  3183   	fcall	_i2c_start
  4627                           
  4628                           ;EEPROM_Driver.c: 14:     i2c_out_byte(0b10100001);
  4629  0363  30A1               	movlw	161
  4630  0364  3183  23CB  3183   	fcall	_i2c_out_byte
  4631                           
  4632                           ;EEPROM_Driver.c: 15:     i2c_nack();
  4633  0367  3184  24B6  3183   	fcall	_i2c_nack
  4634                           
  4635                           ;EEPROM_Driver.c: 16:     y=i2c_in_byte();
  4636  036A  3183  2378  3183   	fcall	_i2c_in_byte
  4637  036D  00F6               	movwf	??_EEPROM_ReadOneByte
  4638  036E  0876               	movf	??_EEPROM_ReadOneByte,w
  4639  036F  00F7               	movwf	EEPROM_ReadOneByte@y
  4640                           
  4641                           ;EEPROM_Driver.c: 17:     i2c_ack();
  4642  0370  3184  24A9  3183   	fcall	_i2c_ack
  4643                           
  4644                           ;EEPROM_Driver.c: 18:     i2c_stop();
  4645  0373  3184  248F  3183   	fcall	_i2c_stop
  4646  0376                     i1l1438:
  4647                           
  4648                           ;EEPROM_Driver.c: 19:     return y;
  4649  0376  0877               	movf	EEPROM_ReadOneByte@y,w
  4650  0377                     i1l392:
  4651  0377  0008               	return
  4652  0378                     __end_of_EEPROM_ReadOneByte:
  4653                           
  4654                           	psect	text21
  4655  048F                     __ptext21:	
  4656 ;; *************** function _i2c_stop *****************
  4657 ;; Defined at:
  4658 ;;		line 64 in file "EEPROM_Driver.c"
  4659 ;; Parameters:    Size  Location     Type
  4660 ;;		None
  4661 ;; Auto vars:     Size  Location     Type
  4662 ;;		None
  4663 ;; Return value:  Size  Location     Type
  4664 ;;                  1    wreg      void 
  4665 ;; Registers used:
  4666 ;;		wreg, status,2, status,0, pclath, cstack
  4667 ;; Tracked objects:
  4668 ;;		On entry : 0/0
  4669 ;;		On exit  : 0/0
  4670 ;;		Unchanged: 0/0
  4671 ;; Data sizes:     COMMON   BANK0   BANK1   BANK2   BANK3   BANK4   BANK5   BANK6   BANK7   BANK8   BANK9  BANK10  BANK1
      +1  BANK12
  4672 ;;      Params:         0       0       0       0       0       0       0       0       0       0       0       0       
      +0       0
  4673 ;;      Locals:         0       0       0       0       0       0       0       0       0       0       0       0       
      +0       0
  4674 ;;      Temps:          0       0       0       0       0       0       0       0       0       0       0       0       
      +0       0
  4675 ;;      Totals:         0       0       0       0       0       0       0       0       0       0       0       0       
      +0       0
  4676 ;;Total ram usage:        0 bytes
  4677 ;; Hardware stack levels used: 1
  4678 ;; Hardware stack levels required when called: 1
  4679 ;; This function calls:
  4680 ;;		_i2c_high_scl
  4681 ;;		_i2c_high_sda
  4682 ;;		_i2c_low_scl
  4683 ;;		_i2c_low_sda
  4684 ;; This function is called by:
  4685 ;;		_EEPROM_ReadOneByte
  4686 ;; This function uses a non-reentrant model
  4687 ;;
  4688                           
  4689                           
  4690                           ;psect for function _i2c_stop
  4691  048F                     _i2c_stop:
  4692  048F                     i1l1428:	
  4693                           ;incstack = 0
  4694                           ; Regs used in _i2c_stop: [wreg+status,2+status,0+pclath+cstack]
  4695                           
  4696                           
  4697                           ;EEPROM_Driver.c: 65:     i2c_low_scl();
  4698  048F  3184  24C9  3184   	fcall	_i2c_low_scl
  4699                           
  4700                           ;EEPROM_Driver.c: 66:     i2c_low_sda();
  4701  0492  3184  24C0  3184   	fcall	_i2c_low_sda
  4702                           
  4703                           ;EEPROM_Driver.c: 67:     i2c_high_scl();
  4704  0495  3184  24E1  3184   	fcall	_i2c_high_scl
  4705                           
  4706                           ;EEPROM_Driver.c: 68:     i2c_high_sda();
  4707  0498  3184  24DA  3184   	fcall	_i2c_high_sda
  4708  049B                     i1l415:
  4709  049B  0008               	return
  4710  049C                     __end_of_i2c_stop:
  4711                           
  4712                           	psect	text22
  4713  049C                     __ptext22:	
  4714 ;; *************** function _i2c_start *****************
  4715 ;; Defined at:
  4716 ;;		line 71 in file "EEPROM_Driver.c"
  4717 ;; Parameters:    Size  Location     Type
  4718 ;;		None
  4719 ;; Auto vars:     Size  Location     Type
  4720 ;;		None
  4721 ;; Return value:  Size  Location     Type
  4722 ;;                  1    wreg      void 
  4723 ;; Registers used:
  4724 ;;		wreg, status,2, status,0, pclath, cstack
  4725 ;; Tracked objects:
  4726 ;;		On entry : 0/0
  4727 ;;		On exit  : 0/0
  4728 ;;		Unchanged: 0/0
  4729 ;; Data sizes:     COMMON   BANK0   BANK1   BANK2   BANK3   BANK4   BANK5   BANK6   BANK7   BANK8   BANK9  BANK10  BANK1
      +1  BANK12
  4730 ;;      Params:         0       0       0       0       0       0       0       0       0       0       0       0       
      +0       0
  4731 ;;      Locals:         0       0       0       0       0       0       0       0       0       0       0       0       
      +0       0
  4732 ;;      Temps:          0       0       0       0       0       0       0       0       0       0       0       0       
      +0       0
  4733 ;;      Totals:         0       0       0       0       0       0       0       0       0       0       0       0       
      +0       0
  4734 ;;Total ram usage:        0 bytes
  4735 ;; Hardware stack levels used: 1
  4736 ;; Hardware stack levels required when called: 1
  4737 ;; This function calls:
  4738 ;;		_i2c_high_scl
  4739 ;;		_i2c_high_sda
  4740 ;;		_i2c_low_scl
  4741 ;;		_i2c_low_sda
  4742 ;; This function is called by:
  4743 ;;		_EEPROM_ReadOneByte
  4744 ;; This function uses a non-reentrant model
  4745 ;;
  4746                           
  4747                           
  4748                           ;psect for function _i2c_start
  4749  049C                     _i2c_start:
  4750  049C                     i1l1376:	
  4751                           ;incstack = 0
  4752                           ; Regs used in _i2c_start: [wreg+status,2+status,0+pclath+cstack]
  4753                           
  4754                           
  4755                           ;EEPROM_Driver.c: 73:     i2c_high_sda();
  4756  049C  3184  24DA  3184   	fcall	_i2c_high_sda
  4757                           
  4758                           ;EEPROM_Driver.c: 74:     i2c_high_scl();
  4759  049F  3184  24E1  3184   	fcall	_i2c_high_scl
  4760                           
  4761                           ;EEPROM_Driver.c: 75:     i2c_low_sda();
  4762  04A2  3184  24C0  3184   	fcall	_i2c_low_sda
  4763                           
  4764                           ;EEPROM_Driver.c: 76:     i2c_low_scl();
  4765  04A5  3184  24C9  3184   	fcall	_i2c_low_scl
  4766  04A8                     i1l418:
  4767  04A8  0008               	return
  4768  04A9                     __end_of_i2c_start:
  4769                           
  4770                           	psect	text23
  4771  03CB                     __ptext23:	
  4772 ;; *************** function _i2c_out_byte *****************
  4773 ;; Defined at:
  4774 ;;		line 38 in file "EEPROM_Driver.c"
  4775 ;; Parameters:    Size  Location     Type
  4776 ;;  o_byte          1    wreg     unsigned char 
  4777 ;; Auto vars:     Size  Location     Type
  4778 ;;  o_byte          1    1[COMMON] unsigned char 
  4779 ;;  n               1    2[COMMON] unsigned char 
  4780 ;; Return value:  Size  Location     Type
  4781 ;;                  1    wreg      void 
  4782 ;; Registers used:
  4783 ;;		wreg, status,2, status,0, pclath, cstack
  4784 ;; Tracked objects:
  4785 ;;		On entry : 0/0
  4786 ;;		On exit  : 0/0
  4787 ;;		Unchanged: 0/0
  4788 ;; Data sizes:     COMMON   BANK0   BANK1   BANK2   BANK3   BANK4   BANK5   BANK6   BANK7   BANK8   BANK9  BANK10  BANK1
      +1  BANK12
  4789 ;;      Params:         0       0       0       0       0       0       0       0       0       0       0       0       
      +0       0
  4790 ;;      Locals:         2       0       0       0       0       0       0       0       0       0       0       0       
      +0       0
  4791 ;;      Temps:          1       0       0       0       0       0       0       0       0       0       0       0       
      +0       0
  4792 ;;      Totals:         3       0       0       0       0       0       0       0       0       0       0       0       
      +0       0
  4793 ;;Total ram usage:        3 bytes
  4794 ;; Hardware stack levels used: 1
  4795 ;; Hardware stack levels required when called: 1
  4796 ;; This function calls:
  4797 ;;		_i2c_high_scl
  4798 ;;		_i2c_high_sda
  4799 ;;		_i2c_low_scl
  4800 ;;		_i2c_low_sda
  4801 ;; This function is called by:
  4802 ;;		_EEPROM_ReadOneByte
  4803 ;; This function uses a non-reentrant model
  4804 ;;
  4805                           
  4806                           
  4807                           ;psect for function _i2c_out_byte
  4808  03CB                     _i2c_out_byte:
  4809                           
  4810                           ;incstack = 0
  4811                           ; Regs used in _i2c_out_byte: [wreg+status,2+status,0+pclath+cstack]
  4812                           ;i2c_out_byte@o_byte stored from wreg
  4813  03CB  00F1               	movwf	i2c_out_byte@o_byte
  4814  03CC                     i1l1378:
  4815                           
  4816                           ;EEPROM_Driver.c: 39:     uint8_t n;;EEPROM_Driver.c: 40:     for(n=0; n<8; n++){
  4817  03CC  01F2               	clrf	i2c_out_byte@n
  4818  03CD                     i1l402:
  4819                           
  4820                           ;EEPROM_Driver.c: 41:        if(o_byte&0x80){
  4821  03CD  1FF1               	btfss	i2c_out_byte@o_byte,7
  4822  03CE  2BD0               	goto	u54_21
  4823  03CF  2BD1               	goto	u54_20
  4824  03D0                     u54_21:
  4825  03D0  2BD5               	goto	i1l1386
  4826  03D1                     u54_20:
  4827  03D1                     i1l1384:
  4828                           
  4829                           ;EEPROM_Driver.c: 42:           i2c_high_sda();
  4830  03D1  3184  24DA  3183   	fcall	_i2c_high_sda
  4831                           
  4832                           ;EEPROM_Driver.c: 43:        }
  4833  03D4  2BD8               	goto	i1l405
  4834  03D5                     i1l1386:
  4835                           
  4836                           ;EEPROM_Driver.c: 45:           i2c_low_sda();
  4837  03D5  3184  24C0  3183   	fcall	_i2c_low_sda
  4838  03D8                     i1l405:	
  4839                           ;EEPROM_Driver.c: 46:        }
  4840                           
  4841                           
  4842                           ;EEPROM_Driver.c: 47:        i2c_high_scl();
  4843  03D8  3184  24E1  3183   	fcall	_i2c_high_scl
  4844                           
  4845                           ;EEPROM_Driver.c: 48:        i2c_low_scl();
  4846  03DB  3184  24C9  3183   	fcall	_i2c_low_scl
  4847  03DE                     i1l1388:
  4848                           
  4849                           ;EEPROM_Driver.c: 49:        o_byte = o_byte << 1;
  4850  03DE  3571               	lslf	i2c_out_byte@o_byte,w
  4851  03DF  00F0               	movwf	??_i2c_out_byte
  4852  03E0  0870               	movf	??_i2c_out_byte,w
  4853  03E1  00F1               	movwf	i2c_out_byte@o_byte
  4854  03E2                     i1l1390:
  4855                           
  4856                           ;EEPROM_Driver.c: 50:     }
  4857  03E2  3001               	movlw	1
  4858  03E3  00F0               	movwf	??_i2c_out_byte
  4859  03E4  0870               	movf	??_i2c_out_byte,w
  4860  03E5  07F2               	addwf	i2c_out_byte@n,f
  4861  03E6                     i1l1392:
  4862  03E6  3008               	movlw	8
  4863  03E7  0272               	subwf	i2c_out_byte@n,w
  4864  03E8  1C03               	skipc
  4865  03E9  2BEB               	goto	u55_21
  4866  03EA  2BEC               	goto	u55_20
  4867  03EB                     u55_21:
  4868  03EB  2BCD               	goto	i1l402
  4869  03EC                     u55_20:
  4870  03EC                     i1l1394:
  4871                           
  4872                           ;EEPROM_Driver.c: 51:     i2c_high_sda();
  4873  03EC  3184  24DA  3183   	fcall	_i2c_high_sda
  4874  03EF                     i1l406:
  4875  03EF  0008               	return
  4876  03F0                     __end_of_i2c_out_byte:
  4877                           
  4878                           	psect	text24
  4879  04B6                     __ptext24:	
  4880 ;; *************** function _i2c_nack *****************
  4881 ;; Defined at:
  4882 ;;		line 53 in file "EEPROM_Driver.c"
  4883 ;; Parameters:    Size  Location     Type
  4884 ;;		None
  4885 ;; Auto vars:     Size  Location     Type
  4886 ;;		None
  4887 ;; Return value:  Size  Location     Type
  4888 ;;                  1    wreg      void 
  4889 ;; Registers used:
  4890 ;;		wreg, status,2, status,0, pclath, cstack
  4891 ;; Tracked objects:
  4892 ;;		On entry : 0/0
  4893 ;;		On exit  : 0/0
  4894 ;;		Unchanged: 0/0
  4895 ;; Data sizes:     COMMON   BANK0   BANK1   BANK2   BANK3   BANK4   BANK5   BANK6   BANK7   BANK8   BANK9  BANK10  BANK1
      +1  BANK12
  4896 ;;      Params:         0       0       0       0       0       0       0       0       0       0       0       0       
      +0       0
  4897 ;;      Locals:         0       0       0       0       0       0       0       0       0       0       0       0       
      +0       0
  4898 ;;      Temps:          0       0       0       0       0       0       0       0       0       0       0       0       
      +0       0
  4899 ;;      Totals:         0       0       0       0       0       0       0       0       0       0       0       0       
      +0       0
  4900 ;;Total ram usage:        0 bytes
  4901 ;; Hardware stack levels used: 1
  4902 ;; Hardware stack levels required when called: 1
  4903 ;; This function calls:
  4904 ;;		_i2c_high_scl
  4905 ;;		_i2c_high_sda
  4906 ;;		_i2c_low_scl
  4907 ;; This function is called by:
  4908 ;;		_EEPROM_ReadOneByte
  4909 ;; This function uses a non-reentrant model
  4910 ;;
  4911                           
  4912                           
  4913                           ;psect for function _i2c_nack
  4914  04B6                     _i2c_nack:
  4915  04B6                     i1l1396:	
  4916                           ;incstack = 0
  4917                           ; Regs used in _i2c_nack: [wreg+status,2+status,0+pclath+cstack]
  4918                           
  4919                           
  4920                           ;EEPROM_Driver.c: 54:     i2c_high_sda();
  4921  04B6  3184  24DA  3184   	fcall	_i2c_high_sda
  4922                           
  4923                           ;EEPROM_Driver.c: 55:     i2c_high_scl();
  4924  04B9  3184  24E1  3184   	fcall	_i2c_high_scl
  4925                           
  4926                           ;EEPROM_Driver.c: 56:     i2c_low_scl();
  4927  04BC  3184  24C9  3184   	fcall	_i2c_low_scl
  4928  04BF                     i1l409:
  4929  04BF  0008               	return
  4930  04C0                     __end_of_i2c_nack:
  4931                           
  4932                           	psect	text25
  4933  0378                     __ptext25:	
  4934 ;; *************** function _i2c_in_byte *****************
  4935 ;; Defined at:
  4936 ;;		line 23 in file "EEPROM_Driver.c"
  4937 ;; Parameters:    Size  Location     Type
  4938 ;;		None
  4939 ;; Auto vars:     Size  Location     Type
  4940 ;;  n               2    1[COMMON] int 
  4941 ;;  i_byte          1    3[COMMON] unsigned char 
  4942 ;; Return value:  Size  Location     Type
  4943 ;;                  1    wreg      unsigned char 
  4944 ;; Registers used:
  4945 ;;		wreg, status,2, status,0, pclath, cstack
  4946 ;; Tracked objects:
  4947 ;;		On entry : 0/0
  4948 ;;		On exit  : 0/0
  4949 ;;		Unchanged: 0/0
  4950 ;; Data sizes:     COMMON   BANK0   BANK1   BANK2   BANK3   BANK4   BANK5   BANK6   BANK7   BANK8   BANK9  BANK10  BANK1
      +1  BANK12
  4951 ;;      Params:         0       0       0       0       0       0       0       0       0       0       0       0       
      +0       0
  4952 ;;      Locals:         3       0       0       0       0       0       0       0       0       0       0       0       
      +0       0
  4953 ;;      Temps:          1       0       0       0       0       0       0       0       0       0       0       0       
      +0       0
  4954 ;;      Totals:         4       0       0       0       0       0       0       0       0       0       0       0       
      +0       0
  4955 ;;Total ram usage:        4 bytes
  4956 ;; Hardware stack levels used: 1
  4957 ;; Hardware stack levels required when called: 1
  4958 ;; This function calls:
  4959 ;;		_i2c_high_scl
  4960 ;;		_i2c_high_sda
  4961 ;;		_i2c_low_scl
  4962 ;; This function is called by:
  4963 ;;		_EEPROM_ReadOneByte
  4964 ;; This function uses a non-reentrant model
  4965 ;;
  4966                           
  4967                           
  4968                           ;psect for function _i2c_in_byte
  4969  0378                     _i2c_in_byte:
  4970  0378                     i1l1398:	
  4971                           ;incstack = 0
  4972                           ; Regs used in _i2c_in_byte: [wreg+status,2+status,0+pclath+cstack]
  4973                           
  4974                           
  4975                           ;EEPROM_Driver.c: 24:     uint8_t i_byte = 0x00;
  4976  0378  01F3               	clrf	i2c_in_byte@i_byte
  4977  0379                     i1l1400:
  4978                           
  4979                           ;EEPROM_Driver.c: 25:     i2c_high_sda();
  4980  0379  3184  24DA  3183   	fcall	_i2c_high_sda
  4981  037C                     i1l1402:
  4982                           
  4983                           ;EEPROM_Driver.c: 26:     for (int n=0; n<8; n++){
  4984  037C  01F1               	clrf	i2c_in_byte@n
  4985  037D  01F2               	clrf	i2c_in_byte@n+1
  4986  037E                     i1l1408:
  4987                           
  4988                           ;EEPROM_Driver.c: 27:        i2c_high_scl();
  4989  037E  3184  24E1  3183   	fcall	_i2c_high_scl
  4990  0381                     i1l1410:
  4991                           
  4992                           ;EEPROM_Driver.c: 28:        if (PORTCbits.RC1){
  4993  0381  0020               	movlb	0	; select bank0
  4994  0382  1C8E               	btfss	14,1	;volatile
  4995  0383  2B85               	goto	u56_21
  4996  0384  2B86               	goto	u56_20
  4997  0385                     u56_21:
  4998  0385  2B89               	goto	i1l1414
  4999  0386                     u56_20:
  5000  0386                     i1l1412:
  5001                           
  5002                           ;EEPROM_Driver.c: 29:           i_byte = (i_byte << 1) | 0x01;
  5003  0386  1403               	setc
  5004  0387  0DF3               	rlf	i2c_in_byte@i_byte,f
  5005                           
  5006                           ;EEPROM_Driver.c: 30:        }
  5007  0388  2B8D               	goto	i1l1416
  5008  0389                     i1l1414:
  5009                           
  5010                           ;EEPROM_Driver.c: 32:           i_byte = i_byte << 1;
  5011  0389  3573               	lslf	i2c_in_byte@i_byte,w
  5012  038A  00F0               	movwf	??_i2c_in_byte
  5013  038B  0870               	movf	??_i2c_in_byte,w
  5014  038C  00F3               	movwf	i2c_in_byte@i_byte
  5015  038D                     i1l1416:
  5016                           
  5017                           ;EEPROM_Driver.c: 34:        i2c_low_scl();
  5018  038D  3184  24C9  3183   	fcall	_i2c_low_scl
  5019  0390                     i1l1418:
  5020                           
  5021                           ;EEPROM_Driver.c: 35:     }
  5022  0390  3001               	movlw	1
  5023  0391  07F1               	addwf	i2c_in_byte@n,f
  5024  0392  3000               	movlw	0
  5025  0393  3DF2               	addwfc	i2c_in_byte@n+1,f
  5026  0394                     i1l1420:
  5027  0394  0872               	movf	i2c_in_byte@n+1,w
  5028  0395  3A80               	xorlw	128
  5029  0396  00F0               	movwf	??_i2c_in_byte
  5030  0397  3080               	movlw	128
  5031  0398  0270               	subwf	??_i2c_in_byte,w
  5032  0399  1D03               	skipz
  5033  039A  2B9D               	goto	u57_25
  5034  039B  3008               	movlw	8
  5035  039C  0271               	subwf	i2c_in_byte@n,w
  5036  039D                     u57_25:
  5037  039D  1C03               	skipc
  5038  039E  2BA0               	goto	u57_21
  5039  039F  2BA1               	goto	u57_20
  5040  03A0                     u57_21:
  5041  03A0  2B7E               	goto	i1l1408
  5042  03A1                     u57_20:
  5043  03A1                     i1l1422:
  5044                           
  5045                           ;EEPROM_Driver.c: 36:     return(i_byte);
  5046  03A1  0873               	movf	i2c_in_byte@i_byte,w
  5047  03A2                     i1l399:
  5048  03A2  0008               	return
  5049  03A3                     __end_of_i2c_in_byte:
  5050                           
  5051                           	psect	text26
  5052  04A9                     __ptext26:	
  5053 ;; *************** function _i2c_ack *****************
  5054 ;; Defined at:
  5055 ;;		line 58 in file "EEPROM_Driver.c"
  5056 ;; Parameters:    Size  Location     Type
  5057 ;;		None
  5058 ;; Auto vars:     Size  Location     Type
  5059 ;;		None
  5060 ;; Return value:  Size  Location     Type
  5061 ;;                  1    wreg      void 
  5062 ;; Registers used:
  5063 ;;		wreg, status,2, status,0, pclath, cstack
  5064 ;; Tracked objects:
  5065 ;;		On entry : 0/0
  5066 ;;		On exit  : 0/0
  5067 ;;		Unchanged: 0/0
  5068 ;; Data sizes:     COMMON   BANK0   BANK1   BANK2   BANK3   BANK4   BANK5   BANK6   BANK7   BANK8   BANK9  BANK10  BANK1
      +1  BANK12
  5069 ;;      Params:         0       0       0       0       0       0       0       0       0       0       0       0       
      +0       0
  5070 ;;      Locals:         0       0       0       0       0       0       0       0       0       0       0       0       
      +0       0
  5071 ;;      Temps:          0       0       0       0       0       0       0       0       0       0       0       0       
      +0       0
  5072 ;;      Totals:         0       0       0       0       0       0       0       0       0       0       0       0       
      +0       0
  5073 ;;Total ram usage:        0 bytes
  5074 ;; Hardware stack levels used: 1
  5075 ;; Hardware stack levels required when called: 1
  5076 ;; This function calls:
  5077 ;;		_i2c_high_scl
  5078 ;;		_i2c_high_sda
  5079 ;;		_i2c_low_scl
  5080 ;;		_i2c_low_sda
  5081 ;; This function is called by:
  5082 ;;		_EEPROM_ReadOneByte
  5083 ;; This function uses a non-reentrant model
  5084 ;;
  5085                           
  5086                           
  5087                           ;psect for function _i2c_ack
  5088  04A9                     _i2c_ack:
  5089  04A9                     i1l1426:	
  5090                           ;incstack = 0
  5091                           ; Regs used in _i2c_ack: [wreg+status,2+status,0+pclath+cstack]
  5092                           
  5093                           
  5094                           ;EEPROM_Driver.c: 59:     i2c_low_sda();
  5095  04A9  3184  24C0  3184   	fcall	_i2c_low_sda
  5096                           
  5097                           ;EEPROM_Driver.c: 60:     i2c_high_scl();
  5098  04AC  3184  24E1  3184   	fcall	_i2c_high_scl
  5099                           
  5100                           ;EEPROM_Driver.c: 61:     i2c_low_scl();
  5101  04AF  3184  24C9  3184   	fcall	_i2c_low_scl
  5102                           
  5103                           ;EEPROM_Driver.c: 62:     i2c_high_sda();
  5104  04B2  3184  24DA  3184   	fcall	_i2c_high_sda
  5105  04B5                     i1l412:
  5106  04B5  0008               	return
  5107  04B6                     __end_of_i2c_ack:
  5108                           
  5109                           	psect	text27
  5110  04C0                     __ptext27:	
  5111 ;; *************** function _i2c_low_sda *****************
  5112 ;; Defined at:
  5113 ;;		line 83 in file "EEPROM_Driver.c"
  5114 ;; Parameters:    Size  Location     Type
  5115 ;;		None
  5116 ;; Auto vars:     Size  Location     Type
  5117 ;;		None
  5118 ;; Return value:  Size  Location     Type
  5119 ;;                  1    wreg      void 
  5120 ;; Registers used:
  5121 ;;		wreg
  5122 ;; Tracked objects:
  5123 ;;		On entry : 0/0
  5124 ;;		On exit  : 0/0
  5125 ;;		Unchanged: 0/0
  5126 ;; Data sizes:     COMMON   BANK0   BANK1   BANK2   BANK3   BANK4   BANK5   BANK6   BANK7   BANK8   BANK9  BANK10  BANK1
      +1  BANK12
  5127 ;;      Params:         0       0       0       0       0       0       0       0       0       0       0       0       
      +0       0
  5128 ;;      Locals:         0       0       0       0       0       0       0       0       0       0       0       0       
      +0       0
  5129 ;;      Temps:          0       0       0       0       0       0       0       0       0       0       0       0       
      +0       0
  5130 ;;      Totals:         0       0       0       0       0       0       0       0       0       0       0       0       
      +0       0
  5131 ;;Total ram usage:        0 bytes
  5132 ;; Hardware stack levels used: 1
  5133 ;; This function calls:
  5134 ;;		Nothing
  5135 ;; This function is called by:
  5136 ;;		_i2c_out_byte
  5137 ;;		_i2c_ack
  5138 ;;		_i2c_stop
  5139 ;;		_i2c_start
  5140 ;; This function uses a non-reentrant model
  5141 ;;
  5142                           
  5143                           
  5144                           ;psect for function _i2c_low_sda
  5145  04C0                     _i2c_low_sda:
  5146  04C0                     i1l1372:	
  5147                           ;incstack = 0
  5148                           ; Regs used in _i2c_low_sda: [wreg]
  5149                           
  5150                           
  5151                           ;EEPROM_Driver.c: 84:     LATCbits.LATC1 = 0;
  5152  04C0  0022               	movlb	2	; select bank2
  5153  04C1  108E               	bcf	14,1	;volatile
  5154                           
  5155                           ;EEPROM_Driver.c: 85:     TRISCbits.TRISC1 = 0;
  5156  04C2  0021               	movlb	1	; select bank1
  5157  04C3  108E               	bcf	14,1	;volatile
  5158  04C4                     i1l1374:
  5159                           
  5160                           ;EEPROM_Driver.c: 86:     _delay((unsigned long)((10)*(16000000/4000000.0)));
  5161  04C4  300D               	movlw	13
  5162  04C5                     u119_27:
  5163  04C5  0B89               	decfsz	9,f
  5164  04C6  2CC5               	goto	u119_27
  5165  04C7  0000               	nop
  5166  04C8                     i1l424:
  5167  04C8  0008               	return
  5168  04C9                     __end_of_i2c_low_sda:
  5169                           
  5170                           	psect	text28
  5171  04C9                     __ptext28:	
  5172 ;; *************** function _i2c_low_scl *****************
  5173 ;; Defined at:
  5174 ;;		line 92 in file "EEPROM_Driver.c"
  5175 ;; Parameters:    Size  Location     Type
  5176 ;;		None
  5177 ;; Auto vars:     Size  Location     Type
  5178 ;;		None
  5179 ;; Return value:  Size  Location     Type
  5180 ;;                  1    wreg      void 
  5181 ;; Registers used:
  5182 ;;		wreg
  5183 ;; Tracked objects:
  5184 ;;		On entry : 0/0
  5185 ;;		On exit  : 0/0
  5186 ;;		Unchanged: 0/0
  5187 ;; Data sizes:     COMMON   BANK0   BANK1   BANK2   BANK3   BANK4   BANK5   BANK6   BANK7   BANK8   BANK9  BANK10  BANK1
      +1  BANK12
  5188 ;;      Params:         0       0       0       0       0       0       0       0       0       0       0       0       
      +0       0
  5189 ;;      Locals:         0       0       0       0       0       0       0       0       0       0       0       0       
      +0       0
  5190 ;;      Temps:          0       0       0       0       0       0       0       0       0       0       0       0       
      +0       0
  5191 ;;      Totals:         0       0       0       0       0       0       0       0       0       0       0       0       
      +0       0
  5192 ;;Total ram usage:        0 bytes
  5193 ;; Hardware stack levels used: 1
  5194 ;; This function calls:
  5195 ;;		Nothing
  5196 ;; This function is called by:
  5197 ;;		_i2c_in_byte
  5198 ;;		_i2c_out_byte
  5199 ;;		_i2c_nack
  5200 ;;		_i2c_ack
  5201 ;;		_i2c_stop
  5202 ;;		_i2c_start
  5203 ;; This function uses a non-reentrant model
  5204 ;;
  5205                           
  5206                           
  5207                           ;psect for function _i2c_low_scl
  5208  04C9                     _i2c_low_scl:
  5209  04C9                     i1l1368:	
  5210                           ;incstack = 0
  5211                           ; Regs used in _i2c_low_scl: [wreg]
  5212                           
  5213                           
  5214                           ;EEPROM_Driver.c: 93:     LATCbits.LATC0 = 0;
  5215  04C9  0022               	movlb	2	; select bank2
  5216  04CA  100E               	bcf	14,0	;volatile
  5217                           
  5218                           ;EEPROM_Driver.c: 94:     TRISCbits.TRISC0 = 0;
  5219  04CB  0021               	movlb	1	; select bank1
  5220  04CC  100E               	bcf	14,0	;volatile
  5221  04CD                     i1l1370:
  5222                           
  5223                           ;EEPROM_Driver.c: 95:     _delay((unsigned long)((10)*(16000000/4000000.0)));
  5224  04CD  300D               	movlw	13
  5225  04CE                     u120_27:
  5226  04CE  0B89               	decfsz	9,f
  5227  04CF  2CCE               	goto	u120_27
  5228  04D0  0000               	nop
  5229  04D1                     i1l430:
  5230  04D1  0008               	return
  5231  04D2                     __end_of_i2c_low_scl:
  5232                           
  5233                           	psect	text29
  5234  04DA                     __ptext29:	
  5235 ;; *************** function _i2c_high_sda *****************
  5236 ;; Defined at:
  5237 ;;		line 78 in file "EEPROM_Driver.c"
  5238 ;; Parameters:    Size  Location     Type
  5239 ;;		None
  5240 ;; Auto vars:     Size  Location     Type
  5241 ;;		None
  5242 ;; Return value:  Size  Location     Type
  5243 ;;                  1    wreg      void 
  5244 ;; Registers used:
  5245 ;;		wreg
  5246 ;; Tracked objects:
  5247 ;;		On entry : 0/0
  5248 ;;		On exit  : 0/0
  5249 ;;		Unchanged: 0/0
  5250 ;; Data sizes:     COMMON   BANK0   BANK1   BANK2   BANK3   BANK4   BANK5   BANK6   BANK7   BANK8   BANK9  BANK10  BANK1
      +1  BANK12
  5251 ;;      Params:         0       0       0       0       0       0       0       0       0       0       0       0       
      +0       0
  5252 ;;      Locals:         0       0       0       0       0       0       0       0       0       0       0       0       
      +0       0
  5253 ;;      Temps:          0       0       0       0       0       0       0       0       0       0       0       0       
      +0       0
  5254 ;;      Totals:         0       0       0       0       0       0       0       0       0       0       0       0       
      +0       0
  5255 ;;Total ram usage:        0 bytes
  5256 ;; Hardware stack levels used: 1
  5257 ;; This function calls:
  5258 ;;		Nothing
  5259 ;; This function is called by:
  5260 ;;		_i2c_in_byte
  5261 ;;		_i2c_out_byte
  5262 ;;		_i2c_nack
  5263 ;;		_i2c_ack
  5264 ;;		_i2c_stop
  5265 ;;		_i2c_start
  5266 ;; This function uses a non-reentrant model
  5267 ;;
  5268                           
  5269                           
  5270                           ;psect for function _i2c_high_sda
  5271  04DA                     _i2c_high_sda:
  5272  04DA                     i1l1360:	
  5273                           ;incstack = 0
  5274                           ; Regs used in _i2c_high_sda: [wreg]
  5275                           
  5276                           
  5277                           ;EEPROM_Driver.c: 80:     TRISCbits.TRISC1 = 1;
  5278  04DA  0021               	movlb	1	; select bank1
  5279  04DB  148E               	bsf	14,1	;volatile
  5280  04DC                     i1l1362:
  5281                           
  5282                           ;EEPROM_Driver.c: 81:     _delay((unsigned long)((10)*(16000000/4000000.0)));
  5283  04DC  300D               	movlw	13
  5284  04DD                     u121_27:
  5285  04DD  0B89               	decfsz	9,f
  5286  04DE  2CDD               	goto	u121_27
  5287  04DF  0000               	nop
  5288  04E0                     i1l421:
  5289  04E0  0008               	return
  5290  04E1                     __end_of_i2c_high_sda:
  5291                           
  5292                           	psect	text30
  5293  04E1                     __ptext30:	
  5294 ;; *************** function _i2c_high_scl *****************
  5295 ;; Defined at:
  5296 ;;		line 88 in file "EEPROM_Driver.c"
  5297 ;; Parameters:    Size  Location     Type
  5298 ;;		None
  5299 ;; Auto vars:     Size  Location     Type
  5300 ;;		None
  5301 ;; Return value:  Size  Location     Type
  5302 ;;                  1    wreg      void 
  5303 ;; Registers used:
  5304 ;;		wreg
  5305 ;; Tracked objects:
  5306 ;;		On entry : 0/0
  5307 ;;		On exit  : 0/0
  5308 ;;		Unchanged: 0/0
  5309 ;; Data sizes:     COMMON   BANK0   BANK1   BANK2   BANK3   BANK4   BANK5   BANK6   BANK7   BANK8   BANK9  BANK10  BANK1
      +1  BANK12
  5310 ;;      Params:         0       0       0       0       0       0       0       0       0       0       0       0       
      +0       0
  5311 ;;      Locals:         0       0       0       0       0       0       0       0       0       0       0       0       
      +0       0
  5312 ;;      Temps:          0       0       0       0       0       0       0       0       0       0       0       0       
      +0       0
  5313 ;;      Totals:         0       0       0       0       0       0       0       0       0       0       0       0       
      +0       0
  5314 ;;Total ram usage:        0 bytes
  5315 ;; Hardware stack levels used: 1
  5316 ;; This function calls:
  5317 ;;		Nothing
  5318 ;; This function is called by:
  5319 ;;		_i2c_in_byte
  5320 ;;		_i2c_out_byte
  5321 ;;		_i2c_nack
  5322 ;;		_i2c_ack
  5323 ;;		_i2c_stop
  5324 ;;		_i2c_start
  5325 ;; This function uses a non-reentrant model
  5326 ;;
  5327                           
  5328                           
  5329                           ;psect for function _i2c_high_scl
  5330  04E1                     _i2c_high_scl:
  5331  04E1                     i1l1364:	
  5332                           ;incstack = 0
  5333                           ; Regs used in _i2c_high_scl: [wreg]
  5334                           
  5335                           
  5336                           ;EEPROM_Driver.c: 89:     TRISCbits.TRISC0 = 1;
  5337  04E1  0021               	movlb	1	; select bank1
  5338  04E2  140E               	bsf	14,0	;volatile
  5339  04E3                     i1l1366:
  5340                           
  5341                           ;EEPROM_Driver.c: 90:     _delay((unsigned long)((10)*(16000000/4000000.0)));
  5342  04E3  300D               	movlw	13
  5343  04E4                     u122_27:
  5344  04E4  0B89               	decfsz	9,f
  5345  04E5  2CE4               	goto	u122_27
  5346  04E6  0000               	nop
  5347  04E7                     i1l427:
  5348  04E7  0008               	return
  5349  04E8                     __end_of_i2c_high_scl:
  5350                           
  5351                           	psect	text31
  5352  0500                     __ptext31:	
  5353 ;; *************** function _DAC_SetOutput *****************
  5354 ;; Defined at:
  5355 ;;		line 66 in file "mcc_generated_files/dac.c"
  5356 ;; Parameters:    Size  Location     Type
  5357 ;;  inputData       1    wreg     unsigned char 
  5358 ;; Auto vars:     Size  Location     Type
  5359 ;;  inputData       1    0[COMMON] unsigned char 
  5360 ;; Return value:  Size  Location     Type
  5361 ;;                  1    wreg      void 
  5362 ;; Registers used:
  5363 ;;		wreg
  5364 ;; Tracked objects:
  5365 ;;		On entry : 0/0
  5366 ;;		On exit  : 0/0
  5367 ;;		Unchanged: 0/0
  5368 ;; Data sizes:     COMMON   BANK0   BANK1   BANK2   BANK3   BANK4   BANK5   BANK6   BANK7   BANK8   BANK9  BANK10  BANK1
      +1  BANK12
  5369 ;;      Params:         0       0       0       0       0       0       0       0       0       0       0       0       
      +0       0
  5370 ;;      Locals:         1       0       0       0       0       0       0       0       0       0       0       0       
      +0       0
  5371 ;;      Temps:          0       0       0       0       0       0       0       0       0       0       0       0       
      +0       0
  5372 ;;      Totals:         1       0       0       0       0       0       0       0       0       0       0       0       
      +0       0
  5373 ;;Total ram usage:        1 bytes
  5374 ;; Hardware stack levels used: 1
  5375 ;; This function calls:
  5376 ;;		Nothing
  5377 ;; This function is called by:
  5378 ;;		_AudioUpdate
  5379 ;; This function uses a non-reentrant model
  5380 ;;
  5381                           
  5382                           
  5383                           ;psect for function _DAC_SetOutput
  5384  0500                     _DAC_SetOutput:
  5385                           
  5386                           ;incstack = 0
  5387                           ; Regs used in _DAC_SetOutput: [wreg]
  5388                           ;DAC_SetOutput@inputData stored from wreg
  5389  0500  00F0               	movwf	DAC_SetOutput@inputData
  5390  0501                     i1l1434:
  5391                           
  5392                           ;mcc_generated_files/dac.c: 66: void DAC_SetOutput(uint8_t inputData);mcc_generated_file
      +                          s/dac.c: 67: {;mcc_generated_files/dac.c: 68:     DAC1CON1 = inputData;
  5393  0501  0870               	movf	DAC_SetOutput@inputData,w
  5394  0502  0022               	movlb	2	; select bank2
  5395  0503  0099               	movwf	25	;volatile
  5396  0504                     i1l116:
  5397  0504  0008               	return
  5398  0505                     __end_of_DAC_SetOutput:
  5399                           
  5400                           	psect	text32
  5401  0427                     __ptext32:	
  5402 ;; *************** function _TMR1_ISR *****************
  5403 ;; Defined at:
  5404 ;;		line 157 in file "mcc_generated_files/tmr1.c"
  5405 ;; Parameters:    Size  Location     Type
  5406 ;;		None
  5407 ;; Auto vars:     Size  Location     Type
  5408 ;;		None
  5409 ;; Return value:  Size  Location     Type
  5410 ;;                  1    wreg      void 
  5411 ;; Registers used:
  5412 ;;		wreg, status,2, status,0, pclath, cstack
  5413 ;; Tracked objects:
  5414 ;;		On entry : 0/0
  5415 ;;		On exit  : 0/0
  5416 ;;		Unchanged: 0/0
  5417 ;; Data sizes:     COMMON   BANK0   BANK1   BANK2   BANK3   BANK4   BANK5   BANK6   BANK7   BANK8   BANK9  BANK10  BANK1
      +1  BANK12
  5418 ;;      Params:         0       0       0       0       0       0       0       0       0       0       0       0       
      +0       0
  5419 ;;      Locals:         0       0       0       0       0       0       0       0       0       0       0       0       
      +0       0
  5420 ;;      Temps:          0       0       0       0       0       0       0       0       0       0       0       0       
      +0       0
  5421 ;;      Totals:         0       0       0       0       0       0       0       0       0       0       0       0       
      +0       0
  5422 ;;Total ram usage:        0 bytes
  5423 ;; Hardware stack levels used: 1
  5424 ;; Hardware stack levels required when called: 1
  5425 ;; This function calls:
  5426 ;;		Absolute function
  5427 ;;		_RingUpdate
  5428 ;;		_TMR1_DefaultInterruptHandler
  5429 ;;		_TMR1_WriteTimer
  5430 ;; This function is called by:
  5431 ;;		_INTERRUPT_InterruptManager
  5432 ;; This function uses a non-reentrant model
  5433 ;;
  5434                           
  5435                           
  5436                           ;psect for function _TMR1_ISR
  5437  0427                     _TMR1_ISR:
  5438  0427                     i1l1548:	
  5439                           ;incstack = 0
  5440                           ; Regs used in _TMR1_ISR: [wreg+status,2+status,0+pclath+cstack]
  5441                           
  5442                           
  5443                           ;mcc_generated_files/tmr1.c: 161:     PIR1bits.TMR1IF = 0;
  5444  0427  0020               	movlb	0	; select bank0
  5445  0428  1011               	bcf	17,0	;volatile
  5446  0429                     i1l1550:
  5447                           
  5448                           ;mcc_generated_files/tmr1.c: 162:     TMR1_WriteTimer(timer1ReloadVal);
  5449  0429  0848               	movf	_timer1ReloadVal+1,w	;volatile
  5450  042A  00F1               	movwf	TMR1_WriteTimer@timerVal+1
  5451  042B  0847               	movf	_timer1ReloadVal,w	;volatile
  5452  042C  00F0               	movwf	TMR1_WriteTimer@timerVal
  5453  042D  3184  2463  3184   	fcall	_TMR1_WriteTimer
  5454  0430                     i1l1552:
  5455                           
  5456                           ;mcc_generated_files/tmr1.c: 164:     if(TMR1_InterruptHandler)
  5457  0430  0020               	movlb	0	; select bank0
  5458  0431  0845               	movf	_TMR1_InterruptHandler,w
  5459  0432  0446               	iorwf	_TMR1_InterruptHandler+1,w
  5460  0433  1903               	btfsc	3,2
  5461  0434  2C36               	goto	u72_21
  5462  0435  2C37               	goto	u72_20
  5463  0436                     u72_21:
  5464  0436  2C3C               	goto	i1l54
  5465  0437                     u72_20:
  5466  0437                     i1l1554:
  5467                           
  5468                           ;mcc_generated_files/tmr1.c: 165:     {;mcc_generated_files/tmr1.c: 166:         TMR1_In
      +                          terruptHandler();
  5469  0437  0846               	movf	_TMR1_InterruptHandler+1,w
  5470  0438  008A               	movwf	10
  5471  0439  0845               	movf	_TMR1_InterruptHandler,w
  5472  043A  000A               	callw
  5473  043B  3184               	pagesel	$
  5474  043C                     i1l54:
  5475  043C  0008               	return
  5476  043D                     __end_of_TMR1_ISR:
  5477                           
  5478                           	psect	text33
  5479  0463                     __ptext33:	
  5480 ;; *************** function _TMR1_WriteTimer *****************
  5481 ;; Defined at:
  5482 ;;		line 120 in file "mcc_generated_files/tmr1.c"
  5483 ;; Parameters:    Size  Location     Type
  5484 ;;  timerVal        2    0[COMMON] unsigned short 
  5485 ;; Auto vars:     Size  Location     Type
  5486 ;;		None
  5487 ;; Return value:  Size  Location     Type
  5488 ;;                  1    wreg      void 
  5489 ;; Registers used:
  5490 ;;		wreg, status,2
  5491 ;; Tracked objects:
  5492 ;;		On entry : 0/0
  5493 ;;		On exit  : 0/0
  5494 ;;		Unchanged: 0/0
  5495 ;; Data sizes:     COMMON   BANK0   BANK1   BANK2   BANK3   BANK4   BANK5   BANK6   BANK7   BANK8   BANK9  BANK10  BANK1
      +1  BANK12
  5496 ;;      Params:         2       0       0       0       0       0       0       0       0       0       0       0       
      +0       0
  5497 ;;      Locals:         0       0       0       0       0       0       0       0       0       0       0       0       
      +0       0
  5498 ;;      Temps:          0       0       0       0       0       0       0       0       0       0       0       0       
      +0       0
  5499 ;;      Totals:         2       0       0       0       0       0       0       0       0       0       0       0       
      +0       0
  5500 ;;Total ram usage:        2 bytes
  5501 ;; Hardware stack levels used: 1
  5502 ;; This function calls:
  5503 ;;		Nothing
  5504 ;; This function is called by:
  5505 ;;		_TMR1_ISR
  5506 ;;		_TMR1_Reload
  5507 ;; This function uses a non-reentrant model
  5508 ;;
  5509                           
  5510                           
  5511                           ;psect for function _TMR1_WriteTimer
  5512  0463                     _TMR1_WriteTimer:
  5513  0463                     i1l1458:	
  5514                           ;incstack = 0
  5515                           ; Regs used in _TMR1_WriteTimer: [wreg+status,2]
  5516                           
  5517                           
  5518                           ;mcc_generated_files/tmr1.c: 120: void TMR1_WriteTimer(uint16_t timerVal);mcc_generated_
      +                          files/tmr1.c: 121: {;mcc_generated_files/tmr1.c: 122:     if (T1CONbits.nT1SYNC == 1)
  5519  0463  0020               	movlb	0	; select bank0
  5520  0464  1D18               	btfss	24,2	;volatile
  5521  0465  2C67               	goto	u58_21
  5522  0466  2C68               	goto	u58_20
  5523  0467                     u58_21:
  5524  0467  2C6F               	goto	i1l1468
  5525  0468                     u58_20:
  5526  0468                     i1l1460:
  5527                           
  5528                           ;mcc_generated_files/tmr1.c: 123:     {;mcc_generated_files/tmr1.c: 125:         T1CONbi
      +                          ts.TMR1ON = 0;
  5529  0468  1018               	bcf	24,0	;volatile
  5530  0469                     i1l1462:
  5531                           
  5532                           ;mcc_generated_files/tmr1.c: 128:         TMR1H = (timerVal >> 8);
  5533  0469  0871               	movf	TMR1_WriteTimer@timerVal+1,w
  5534  046A  0097               	movwf	23	;volatile
  5535  046B                     i1l1464:
  5536                           
  5537                           ;mcc_generated_files/tmr1.c: 129:         TMR1L = timerVal;
  5538  046B  0870               	movf	TMR1_WriteTimer@timerVal,w
  5539  046C  0096               	movwf	22	;volatile
  5540  046D                     i1l1466:
  5541                           
  5542                           ;mcc_generated_files/tmr1.c: 132:         T1CONbits.TMR1ON =1;
  5543  046D  1418               	bsf	24,0	;volatile
  5544                           
  5545                           ;mcc_generated_files/tmr1.c: 133:     }
  5546  046E  2C73               	goto	i1l41
  5547  046F                     i1l1468:
  5548                           
  5549                           ;mcc_generated_files/tmr1.c: 135:     {;mcc_generated_files/tmr1.c: 137:         TMR1H =
      +                           (timerVal >> 8);
  5550  046F  0871               	movf	TMR1_WriteTimer@timerVal+1,w
  5551  0470  0097               	movwf	23	;volatile
  5552  0471                     i1l1470:
  5553                           
  5554                           ;mcc_generated_files/tmr1.c: 138:         TMR1L = timerVal;
  5555  0471  0870               	movf	TMR1_WriteTimer@timerVal,w
  5556  0472  0096               	movwf	22	;volatile
  5557  0473                     i1l41:
  5558  0473  0008               	return
  5559  0474                     __end_of_TMR1_WriteTimer:
  5560                           
  5561                           	psect	text34
  5562  0262                     __ptext34:	
  5563 ;; *************** function _RingUpdate *****************
  5564 ;; Defined at:
  5565 ;;		line 30 in file "main.c"
  5566 ;; Parameters:    Size  Location     Type
  5567 ;;		None
  5568 ;; Auto vars:     Size  Location     Type
  5569 ;;		None
  5570 ;; Return value:  Size  Location     Type
  5571 ;;                  1    wreg      void 
  5572 ;; Registers used:
  5573 ;;		wreg, status,2, status,0
  5574 ;; Tracked objects:
  5575 ;;		On entry : 0/0
  5576 ;;		On exit  : 0/0
  5577 ;;		Unchanged: 0/0
  5578 ;; Data sizes:     COMMON   BANK0   BANK1   BANK2   BANK3   BANK4   BANK5   BANK6   BANK7   BANK8   BANK9  BANK10  BANK1
      +1  BANK12
  5579 ;;      Params:         0       0       0       0       0       0       0       0       0       0       0       0       
      +0       0
  5580 ;;      Locals:         0       0       0       0       0       0       0       0       0       0       0       0       
      +0       0
  5581 ;;      Temps:          3       0       0       0       0       0       0       0       0       0       0       0       
      +0       0
  5582 ;;      Totals:         3       0       0       0       0       0       0       0       0       0       0       0       
      +0       0
  5583 ;;Total ram usage:        3 bytes
  5584 ;; Hardware stack levels used: 1
  5585 ;; This function calls:
  5586 ;;		Nothing
  5587 ;; This function is called by:
  5588 ;;		_main
  5589 ;;		_TMR1_ISR
  5590 ;; This function uses a non-reentrant model
  5591 ;;
  5592                           
  5593                           
  5594                           ;psect for function _RingUpdate
  5595  0262                     _RingUpdate:
  5596  0262                     i1l248:	
  5597                           ;incstack = 0
  5598                           ; Regs used in _RingUpdate: [wreg+status,2+status,0]
  5599                           ;main.c: 32:     do { LATCbits.LATC2 = 0; } while(0);
  5600                           
  5601  0262  0022               	movlb	2	; select bank2
  5602  0263  110E               	bcf	14,2	;volatile
  5603  0264                     i1l250:	
  5604                           ;main.c: 33:     do { LATCbits.LATC3 = 0; } while(0);
  5605                           
  5606  0264  118E               	bcf	14,3	;volatile
  5607  0265                     i1l252:	
  5608                           ;main.c: 34:     do { LATCbits.LATC4 = 0; } while(0);
  5609                           
  5610  0265  120E               	bcf	14,4	;volatile
  5611  0266                     i1l254:	
  5612                           ;main.c: 35:     do { LATCbits.LATC5 = 0; } while(0);
  5613                           
  5614  0266  128E               	bcf	14,5	;volatile
  5615  0267                     i1l255:
  5616                           
  5617                           ;main.c: 37:     if((RingSetting & 0x01) > 0) do { LATCbits.LATC5 = 1; } while(0);
  5618  0267  0020               	movlb	0	; select bank0
  5619  0268  1C40               	btfss	_RingSetting,0
  5620  0269  2A6B               	goto	u59_21
  5621  026A  2A6C               	goto	u59_20
  5622  026B                     u59_21:
  5623  026B  2A6E               	goto	i1l256
  5624  026C                     u59_20:
  5625  026C                     i1l257:
  5626  026C  0022               	movlb	2	; select bank2
  5627  026D  168E               	bsf	14,5	;volatile
  5628  026E                     i1l256:
  5629                           
  5630                           ;main.c: 38:     if((RingSetting & 0x02) > 0) do { LATCbits.LATC4 = 1; } while(0);
  5631  026E  0020               	movlb	0	; select bank0
  5632  026F  1CC0               	btfss	_RingSetting,1
  5633  0270  2A72               	goto	u60_21
  5634  0271  2A73               	goto	u60_20
  5635  0272                     u60_21:
  5636  0272  2A75               	goto	i1l259
  5637  0273                     u60_20:
  5638  0273                     i1l260:
  5639  0273  0022               	movlb	2	; select bank2
  5640  0274  160E               	bsf	14,4	;volatile
  5641  0275                     i1l259:
  5642                           
  5643                           ;main.c: 39:     if((RingSetting & 0x04) > 0) do { LATCbits.LATC3 = 1; } while(0);
  5644  0275  0020               	movlb	0	; select bank0
  5645  0276  1D40               	btfss	_RingSetting,2
  5646  0277  2A79               	goto	u61_21
  5647  0278  2A7A               	goto	u61_20
  5648  0279                     u61_21:
  5649  0279  2A7C               	goto	i1l262
  5650  027A                     u61_20:
  5651  027A                     i1l263:
  5652  027A  0022               	movlb	2	; select bank2
  5653  027B  158E               	bsf	14,3	;volatile
  5654  027C                     i1l262:
  5655                           
  5656                           ;main.c: 40:     if((RingSetting & 0x08) > 0) do { LATCbits.LATC2 = 1; } while(0);
  5657  027C  0020               	movlb	0	; select bank0
  5658  027D  1DC0               	btfss	_RingSetting,3
  5659  027E  2A80               	goto	u62_21
  5660  027F  2A81               	goto	u62_20
  5661  0280                     u62_21:
  5662  0280  2A83               	goto	i1l265
  5663  0281                     u62_20:
  5664  0281                     i1l266:
  5665  0281  0022               	movlb	2	; select bank2
  5666  0282  150E               	bsf	14,2	;volatile
  5667  0283                     i1l265:
  5668                           
  5669                           ;main.c: 42:     if((RingSetting & 0x10) > 0){
  5670  0283  0020               	movlb	0	; select bank0
  5671  0284  1E40               	btfss	_RingSetting,4
  5672  0285  2A87               	goto	u63_21
  5673  0286  2A88               	goto	u63_20
  5674  0287                     u63_21:
  5675  0287  2A99               	goto	i1l1520
  5676  0288                     u63_20:
  5677  0288                     i1l1516:
  5678                           
  5679                           ;main.c: 43:         RingSetting = ((RingSetting<<1)&0x0F)|((RingSetting>>3)&0x01);
  5680  0288  0840               	movf	_RingSetting,w
  5681  0289  00F0               	movwf	??_RingUpdate
  5682  028A  3003               	movlw	3
  5683  028B                     u64_25:
  5684  028B  36F0               	lsrf	??_RingUpdate,f
  5685  028C  0B89               	decfsz	9,f
  5686  028D  2A8B               	goto	u64_25
  5687  028E  3001               	movlw	1
  5688  028F  0570               	andwf	??_RingUpdate,w
  5689  0290  00F1               	movwf	??_RingUpdate+1
  5690  0291  3540               	lslf	_RingSetting,w
  5691  0292  390F               	andlw	15
  5692  0293  0471               	iorwf	??_RingUpdate+1,w
  5693  0294  00F2               	movwf	??_RingUpdate+2
  5694  0295  0872               	movf	??_RingUpdate+2,w
  5695  0296  00C0               	movwf	_RingSetting
  5696  0297                     i1l1518:
  5697                           
  5698                           ;main.c: 44:         RingSetting |= 0x10;
  5699  0297  1640               	bsf	_RingSetting,4
  5700                           
  5701                           ;main.c: 45:     }
  5702  0298  2AA8               	goto	i1l270
  5703  0299                     i1l1520:
  5704                           
  5705                           ;main.c: 47:         RingSetting = ((RingSetting>>1)&0x07)|((RingSetting<<3)&0x0F);
  5706  0299  0840               	movf	_RingSetting,w
  5707  029A  00F0               	movwf	??_RingUpdate
  5708  029B  3003               	movlw	3
  5709  029C                     u65_25:
  5710  029C  35F0               	lslf	??_RingUpdate,f
  5711  029D  0B89               	decfsz	9,f
  5712  029E  2A9C               	goto	u65_25
  5713  029F  300F               	movlw	15
  5714  02A0  0570               	andwf	??_RingUpdate,w
  5715  02A1  00F1               	movwf	??_RingUpdate+1
  5716  02A2  3640               	lsrf	_RingSetting,w
  5717  02A3  3907               	andlw	7
  5718  02A4  0471               	iorwf	??_RingUpdate+1,w
  5719  02A5  00F2               	movwf	??_RingUpdate+2
  5720  02A6  0872               	movf	??_RingUpdate+2,w
  5721  02A7  00C0               	movwf	_RingSetting
  5722  02A8                     i1l270:
  5723  02A8  0008               	return
  5724  02A9                     __end_of_RingUpdate:
  5725                           
  5726                           	psect	text35
  5727  050A                     __ptext35:	
  5728 ;; *************** function _TMR1_DefaultInterruptHandler *****************
  5729 ;; Defined at:
  5730 ;;		line 175 in file "mcc_generated_files/tmr1.c"
  5731 ;; Parameters:    Size  Location     Type
  5732 ;;		None
  5733 ;; Auto vars:     Size  Location     Type
  5734 ;;		None
  5735 ;; Return value:  Size  Location     Type
  5736 ;;                  1    wreg      void 
  5737 ;; Registers used:
  5738 ;;		None
  5739 ;; Tracked objects:
  5740 ;;		On entry : 0/0
  5741 ;;		On exit  : 0/0
  5742 ;;		Unchanged: 0/0
  5743 ;; Data sizes:     COMMON   BANK0   BANK1   BANK2   BANK3   BANK4   BANK5   BANK6   BANK7   BANK8   BANK9  BANK10  BANK1
      +1  BANK12
  5744 ;;      Params:         0       0       0       0       0       0       0       0       0       0       0       0       
      +0       0
  5745 ;;      Locals:         0       0       0       0       0       0       0       0       0       0       0       0       
      +0       0
  5746 ;;      Temps:          0       0       0       0       0       0       0       0       0       0       0       0       
      +0       0
  5747 ;;      Totals:         0       0       0       0       0       0       0       0       0       0       0       0       
      +0       0
  5748 ;;Total ram usage:        0 bytes
  5749 ;; Hardware stack levels used: 1
  5750 ;; This function calls:
  5751 ;;		Nothing
  5752 ;; This function is called by:
  5753 ;;		_TMR1_Initialize
  5754 ;;		_TMR1_ISR
  5755 ;; This function uses a non-reentrant model
  5756 ;;
  5757                           
  5758                           
  5759                           ;psect for function _TMR1_DefaultInterruptHandler
  5760  050A                     _TMR1_DefaultInterruptHandler:
  5761  050A                     i1l60:	
  5762                           ;incstack = 0
  5763                           ; Regs used in _TMR1_DefaultInterruptHandler: []
  5764                           
  5765  050A  0008               	return
  5766  050B                     __end_of_TMR1_DefaultInterruptHandler:
  5767  007E                     btemp	set	126	;btemp
  5768  007E                     int$flags	set	126
  5769  007E                     wtemp0	set	126
  5770                           
  5771                           	psect	config
  5772                           
  5773                           ;Config register CONFIG1 @ 0x8007
  5774                           ;	Oscillator Selection Bits
  5775                           ;	FOSC = INTOSC, INTOSC oscillator: I/O function on CLKIN pin
  5776                           ;	Watchdog Timer Enable
  5777                           ;	WDTE = OFF, WDT disabled
  5778                           ;	Power-up Timer Enable
  5779                           ;	PWRTE = OFF, PWRT disabled
  5780                           ;	MCLR Pin Function Select
  5781                           ;	MCLRE = ON, MCLR/VPP pin function is MCLR
  5782                           ;	Flash Program Memory Code Protection
  5783                           ;	CP = OFF, Program memory code protection is disabled
  5784                           ;	Brown-out Reset Enable
  5785                           ;	BOREN = ON, Brown-out Reset enabled
  5786                           ;	Clock Out Enable
  5787                           ;	CLKOUTEN = OFF, CLKOUT function is disabled. I/O or oscillator function on the CLKOUT 
      +                          pin
  5788                           ;	Internal/External Switchover Mode
  5789                           ;	IESO = ON, Internal/External Switchover Mode is enabled
  5790                           ;	Fail-Safe Clock Monitor Enable
  5791                           ;	FCMEN = ON, Fail-Safe Clock Monitor is enabled
  5792  8007                     	org	32775
  5793  8007  3FE4               	dw	16356
  5794                           
  5795                           ;Config register CONFIG2 @ 0x8008
  5796                           ;	Flash Memory Self-Write Protection
  5797                           ;	WRT = OFF, Write protection off
  5798                           ;	Peripheral Pin Select one-way control
  5799                           ;	PPS1WAY = ON, The PPSLOCK bit cannot be cleared once it is set by software
  5800                           ;	Zero-cross detect disable
  5801                           ;	ZCDDIS = ON, Zero-cross detect circuit is disabled at POR
  5802                           ;	Phase Lock Loop enable
  5803                           ;	PLLEN = OFF, 4x PLL is enabled when software sets the SPLLEN bit
  5804                           ;	Stack Overflow/Underflow Reset Enable
  5805                           ;	STVREN = ON, Stack Overflow or Underflow will cause a Reset
  5806                           ;	Brown-out Reset Voltage Selection
  5807                           ;	BORV = LO, Brown-out Reset Voltage (Vbor), low trip point selected.
  5808                           ;	Low-Power Brown Out Reset
  5809                           ;	LPBOR = OFF, Low-Power BOR is disabled
  5810                           ;	Low-Voltage Programming Enable
  5811                           ;	LVP = ON, Low-voltage programming enabled
  5812  8008                     	org	32776
  5813  8008  3EFF               	dw	16127

Data Sizes:
    Strings     0
    Constant    0
    Data        13
    BSS         10
    Persistent  40
    Stack       0

Auto Spaces:
    Space          Size  Autos    Used
    COMMON           14      9      13
    BANK0            80     20      47
    BANK1            80      0       0
    BANK2            80      0       0
    BANK3            80      0       0
    BANK4            80      0       0
    BANK5            80      0       0
    BANK6            80      0       0
    BANK7            80      0       0
    BANK8            80      0       0
    BANK9            80      0       0
    BANK10           80      0       0
    BANK11           80      0       0
    BANK12           48      0       0

Pointer List with Targets:

    TMR2_SetInterruptHandler@InterruptHandler	PTR FTN()void  size(2) Largest target is 1
		 -> AudioUpdate(), TMR2_DefaultInterruptHandler(), 

    TMR2_InterruptHandler	PTR FTN()void  size(2) Largest target is 1
		 -> AudioUpdate(), TMR2_DefaultInterruptHandler(), Absolute function(), 

    TMR1_SetInterruptHandler@InterruptHandler	PTR FTN()void  size(2) Largest target is 1
		 -> RingUpdate(), TMR1_DefaultInterruptHandler(), 

    TMR1_InterruptHandler	PTR FTN()void  size(2) Largest target is 1
		 -> RingUpdate(), Absolute function(), TMR1_DefaultInterruptHandler(), 


Critical Paths under _main in COMMON

    None.

Critical Paths under _INTERRUPT_InterruptManager in COMMON

    _TMR2_ISR->_AudioUpdate
    _AudioUpdate->_EEPROM_ReadOneByte
    _EEPROM_ReadOneByte->_i2c_in_byte
    _TMR1_ISR->_RingUpdate

Critical Paths under _main in BANK0

    _main->_rand
    _rand->___lmul
    _TMR2_Initialize->_TMR2_SetInterruptHandler
    _TMR1_Initialize->_TMR1_SetInterruptHandler

Critical Paths under _INTERRUPT_InterruptManager in BANK0

    None.

Critical Paths under _main in BANK1

    None.

Critical Paths under _INTERRUPT_InterruptManager in BANK1

    None.

Critical Paths under _main in BANK2

    None.

Critical Paths under _INTERRUPT_InterruptManager in BANK2

    None.

Critical Paths under _main in BANK3

    None.

Critical Paths under _INTERRUPT_InterruptManager in BANK3

    None.

Critical Paths under _main in BANK4

    None.

Critical Paths under _INTERRUPT_InterruptManager in BANK4

    None.

Critical Paths under _main in BANK5

    None.

Critical Paths under _INTERRUPT_InterruptManager in BANK5

    None.

Critical Paths under _main in BANK6

    None.

Critical Paths under _INTERRUPT_InterruptManager in BANK6

    None.

Critical Paths under _main in BANK7

    None.

Critical Paths under _INTERRUPT_InterruptManager in BANK7

    None.

Critical Paths under _main in BANK8

    None.

Critical Paths under _INTERRUPT_InterruptManager in BANK8

    None.

Critical Paths under _main in BANK9

    None.

Critical Paths under _INTERRUPT_InterruptManager in BANK9

    None.

Critical Paths under _main in BANK10

    None.

Critical Paths under _INTERRUPT_InterruptManager in BANK10

    None.

Critical Paths under _main in BANK11

    None.

Critical Paths under _INTERRUPT_InterruptManager in BANK11

    None.

Critical Paths under _main in BANK12

    None.

Critical Paths under _INTERRUPT_InterruptManager in BANK12

    None.

Call Graph Tables:

 ---------------------------------------------------------------------------------
 (Depth) Function   	        Calls       Base Space   Used Autos Params    Refs
 ---------------------------------------------------------------------------------
 (0) _main                                                 2     2      0    1124
                                             18 BANK0      2     2      0
                         _AlienLaugh
                      _AttractAbduct
                        _AttractFire
                       _AttractFlash
                  _SYSTEM_Initialize
           _TMR1_SetInterruptHandler
           _TMR2_SetInterruptHandler
                               _rand
 ---------------------------------------------------------------------------------
 (1) _rand                                                 6     4      2     244
                                             12 BANK0      6     4      2
                             ___lmul
 ---------------------------------------------------------------------------------
 (2) ___lmul                                              12     4      8     244
                                              0 BANK0     12     4      8
 ---------------------------------------------------------------------------------
 (1) _SYSTEM_Initialize                                    0     0      0     348
                     _DAC_Initialize
              _OSCILLATOR_Initialize
             _PIN_MANAGER_Initialize
                    _TMR1_Initialize
                    _TMR2_Initialize
                     _WDT_Initialize
 ---------------------------------------------------------------------------------
 (2) _WDT_Initialize                                       0     0      0       0
 ---------------------------------------------------------------------------------
 (2) _TMR2_Initialize                                      0     0      0     174
           _TMR2_SetInterruptHandler
 ---------------------------------------------------------------------------------
 (1) _TMR2_SetInterruptHandler                             2     0      2     174
                                              0 BANK0      2     0      2
 ---------------------------------------------------------------------------------
 (2) _TMR1_Initialize                                      0     0      0     174
           _TMR1_SetInterruptHandler
 ---------------------------------------------------------------------------------
 (1) _TMR1_SetInterruptHandler                             2     0      2     174
                                              0 BANK0      2     0      2
 ---------------------------------------------------------------------------------
 (2) _PIN_MANAGER_Initialize                               0     0      0       0
 ---------------------------------------------------------------------------------
 (2) _OSCILLATOR_Initialize                                0     0      0       0
 ---------------------------------------------------------------------------------
 (2) _DAC_Initialize                                       0     0      0       0
 ---------------------------------------------------------------------------------
 (1) _AttractFlash                                         4     4      0      46
                                              0 BANK0      4     4      0
 ---------------------------------------------------------------------------------
 (1) _AttractFire                                          4     4      0      46
                                              0 BANK0      4     4      0
 ---------------------------------------------------------------------------------
 (1) _AttractAbduct                                        4     4      0      46
                                              0 BANK0      4     4      0
 ---------------------------------------------------------------------------------
 (1) _AlienLaugh                                           4     4      0      46
                                              0 BANK0      4     4      0
 ---------------------------------------------------------------------------------
 Estimated maximum stack depth 2
 ---------------------------------------------------------------------------------
 (Depth) Function   	        Calls       Base Space   Used Autos Params    Refs
 ---------------------------------------------------------------------------------
 (4) _INTERRUPT_InterruptManager                           0     0      0     611
                           _TMR1_ISR
                           _TMR2_ISR
 ---------------------------------------------------------------------------------
 (5) _TMR2_ISR                                             0     0      0     371
                   Absolute function *
                        _AudioUpdate *
       _TMR2_DefaultInterruptHandler *
 ---------------------------------------------------------------------------------
 (6) _TMR2_DefaultInterruptHandler                         0     0      0       0
 ---------------------------------------------------------------------------------
 (6) _AudioUpdate                                          1     1      0     371
                                              8 COMMON     1     1      0
                      _DAC_SetOutput
                 _EEPROM_ReadOneByte
 ---------------------------------------------------------------------------------
 (7) _EEPROM_ReadOneByte                                   4     2      2     349
                                              4 COMMON     4     2      2
                            _i2c_ack
                        _i2c_in_byte
                           _i2c_nack
                       _i2c_out_byte
                          _i2c_start
                           _i2c_stop
 ---------------------------------------------------------------------------------
 (8) _i2c_stop                                             0     0      0       0
                       _i2c_high_scl
                       _i2c_high_sda
                        _i2c_low_scl
                        _i2c_low_sda
 ---------------------------------------------------------------------------------
 (8) _i2c_start                                            0     0      0       0
                       _i2c_high_scl
                       _i2c_high_sda
                        _i2c_low_scl
                        _i2c_low_sda
 ---------------------------------------------------------------------------------
 (8) _i2c_out_byte                                         3     3      0      91
                                              0 COMMON     3     3      0
                       _i2c_high_scl
                       _i2c_high_sda
                        _i2c_low_scl
                        _i2c_low_sda
 ---------------------------------------------------------------------------------
 (8) _i2c_nack                                             0     0      0       0
                       _i2c_high_scl
                       _i2c_high_sda
                        _i2c_low_scl
 ---------------------------------------------------------------------------------
 (8) _i2c_in_byte                                          4     4      0     115
                                              0 COMMON     4     4      0
                       _i2c_high_scl
                       _i2c_high_sda
                        _i2c_low_scl
 ---------------------------------------------------------------------------------
 (8) _i2c_ack                                              0     0      0       0
                       _i2c_high_scl
                       _i2c_high_sda
                        _i2c_low_scl
                        _i2c_low_sda
 ---------------------------------------------------------------------------------
 (9) _i2c_low_sda                                          0     0      0       0
 ---------------------------------------------------------------------------------
 (9) _i2c_low_scl                                          0     0      0       0
 ---------------------------------------------------------------------------------
 (9) _i2c_high_sda                                         0     0      0       0
 ---------------------------------------------------------------------------------
 (9) _i2c_high_scl                                         0     0      0       0
 ---------------------------------------------------------------------------------
 (7) _DAC_SetOutput                                        1     1      0      22
                                              0 COMMON     1     1      0
 ---------------------------------------------------------------------------------
 (5) _TMR1_ISR                                             0     0      0     240
                   Absolute function *
                         _RingUpdate *
       _TMR1_DefaultInterruptHandler *
                    _TMR1_WriteTimer
 ---------------------------------------------------------------------------------
 (6) _TMR1_WriteTimer                                      2     0      2     240
                                              0 COMMON     2     0      2
 ---------------------------------------------------------------------------------
 (6) _TMR1_DefaultInterruptHandler                         0     0      0       0
 ---------------------------------------------------------------------------------
 (6) _RingUpdate                                           3     3      0       0
                                              0 COMMON     3     3      0
 ---------------------------------------------------------------------------------
 (6) Absolute function(Fake)                               0     0      0       0
 ---------------------------------------------------------------------------------
 Estimated maximum stack depth 9
 ---------------------------------------------------------------------------------

 Call Graph Graphs:

 _main (ROOT)
   _AlienLaugh
   _AttractAbduct
   _AttractFire
   _AttractFlash
   _SYSTEM_Initialize
     _DAC_Initialize
     _OSCILLATOR_Initialize
     _PIN_MANAGER_Initialize
     _TMR1_Initialize
       _TMR1_SetInterruptHandler
     _TMR2_Initialize
       _TMR2_SetInterruptHandler
     _WDT_Initialize
   _TMR1_SetInterruptHandler
   _TMR2_SetInterruptHandler
   _rand
     ___lmul

 _INTERRUPT_InterruptManager (ROOT)
   _TMR1_ISR
     Absolute function(Fake) *
     _RingUpdate *
     _TMR1_DefaultInterruptHandler *
     _TMR1_WriteTimer *
   _TMR2_ISR
     Absolute function(Fake) *
     _AudioUpdate *
       _DAC_SetOutput
       _EEPROM_ReadOneByte
         _i2c_ack
           _i2c_high_scl
           _i2c_high_sda
           _i2c_low_scl
           _i2c_low_sda
         _i2c_in_byte
           _i2c_high_scl
           _i2c_high_sda
           _i2c_low_scl
         _i2c_nack
           _i2c_high_scl
           _i2c_high_sda
           _i2c_low_scl
         _i2c_out_byte
           _i2c_high_scl
           _i2c_high_sda
           _i2c_low_scl
           _i2c_low_sda
         _i2c_start
           _i2c_high_scl
           _i2c_high_sda
           _i2c_low_scl
           _i2c_low_sda
         _i2c_stop
           _i2c_high_scl
           _i2c_high_sda
           _i2c_low_scl
           _i2c_low_sda
     _TMR2_DefaultInterruptHandler *

 Address spaces:
Name               Size   Autos  Total    Cost      Usage
BIGRAM             3F0      0       0       0        0.0%
NULL                 0      0       0       0        0.0%
CODE                 0      0       0       0        0.0%
BITCOMMON            E      0       0       1        0.0%
BITSFR0              0      0       0       1        0.0%
SFR0                 0      0       0       1        0.0%
COMMON               E      9       D       2       92.9%
BITSFR1              0      0       0       2        0.0%
SFR1                 0      0       0       2        0.0%
BITSFR2              0      0       0       3        0.0%
SFR2                 0      0       0       3        0.0%
STACK                0      0       0       3        0.0%
BITBANK0            50      0       0       4        0.0%
BITSFR3              0      0       0       4        0.0%
SFR3                 0      0       0       4        0.0%
BANK0               50     14      2F       5       58.8%
BITSFR4              0      0       0       5        0.0%
SFR4                 0      0       0       5        0.0%
BITBANK1            50      0       0       6        0.0%
BITSFR5              0      0       0       6        0.0%
SFR5                 0      0       0       6        0.0%
BANK1               50      0       0       7        0.0%
BITSFR6              0      0       0       7        0.0%
SFR6                 0      0       0       7        0.0%
BITBANK2            50      0       0       8        0.0%
BITSFR7              0      0       0       8        0.0%
SFR7                 0      0       0       8        0.0%
BANK2               50      0       0       9        0.0%
BITSFR8              0      0       0       9        0.0%
SFR8                 0      0       0       9        0.0%
BITBANK3            50      0       0      10        0.0%
BITSFR9              0      0       0      10        0.0%
SFR9                 0      0       0      10        0.0%
BANK3               50      0       0      11        0.0%
BITSFR10             0      0       0      11        0.0%
SFR10                0      0       0      11        0.0%
BITBANK4            50      0       0      12        0.0%
BITSFR11             0      0       0      12        0.0%
SFR11                0      0       0      12        0.0%
BANK4               50      0       0      13        0.0%
BITSFR12             0      0       0      13        0.0%
SFR12                0      0       0      13        0.0%
BITBANK5            50      0       0      14        0.0%
BITSFR13             0      0       0      14        0.0%
SFR13                0      0       0      14        0.0%
BANK5               50      0       0      15        0.0%
BITSFR14             0      0       0      15        0.0%
SFR14                0      0       0      15        0.0%
BITBANK6            50      0       0      16        0.0%
BITSFR15             0      0       0      16        0.0%
SFR15                0      0       0      16        0.0%
BANK6               50      0       0      17        0.0%
BITSFR16             0      0       0      17        0.0%
SFR16                0      0       0      17        0.0%
BITBANK7            50      0       0      18        0.0%
BITSFR17             0      0       0      18        0.0%
SFR17                0      0       0      18        0.0%
BANK7               50      0       0      19        0.0%
BITSFR18             0      0       0      19        0.0%
SFR18                0      0       0      19        0.0%
BITSFR19             0      0       0      20        0.0%
SFR19                0      0       0      20        0.0%
ABS                  0      0      3C      20        0.0%
BITBANK8            50      0       0      21        0.0%
BITSFR20             0      0       0      21        0.0%
SFR20                0      0       0      21        0.0%
BANK8               50      0       0      22        0.0%
BITSFR21             0      0       0      22        0.0%
SFR21                0      0       0      22        0.0%
BITBANK9            50      0       0      23        0.0%
BITSFR22             0      0       0      23        0.0%
SFR22                0      0       0      23        0.0%
BANK9               50      0       0      24        0.0%
BITSFR23             0      0       0      24        0.0%
SFR23                0      0       0      24        0.0%
BITBANK10           50      0       0      25        0.0%
BITSFR24             0      0       0      25        0.0%
SFR24                0      0       0      25        0.0%
BANK10              50      0       0      26        0.0%
BITSFR25             0      0       0      26        0.0%
SFR25                0      0       0      26        0.0%
BITBANK11           50      0       0      27        0.0%
BITSFR26             0      0       0      27        0.0%
SFR26                0      0       0      27        0.0%
BANK11              50      0       0      28        0.0%
BITSFR27             0      0       0      28        0.0%
SFR27                0      0       0      28        0.0%
BITBANK12           30      0       0      29        0.0%
BITSFR28             0      0       0      29        0.0%
SFR28                0      0       0      29        0.0%
BANK12              30      0       0      30        0.0%
BITSFR29             0      0       0      30        0.0%
SFR29                0      0       0      30        0.0%
BITSFR30             0      0       0      31        0.0%
SFR30                0      0       0      31        0.0%
DATA                 0      0      3C      31        0.0%
BITSFR31             0      0       0      32        0.0%
SFR31                0      0       0      32        0.0%


Microchip Technology PIC Macro Assembler V2.32 build 20210201212658 
Symbol Table                                                                                   Wed Oct 13 10:10:26 2021

        __end_of_TMR2_SetInterruptHandler 04F4                                         _x 0041  
                           ?_AttractFlash 0070                                        l27 0426  
                                      l57 04F9                                        l81 0462  
                          ?_AttractAbduct 0070                                       l103 04F3  
                                     l113 04FF                                       l204 040D  
                                     l301 016A                                       l311 0198  
                                     l315 01BC                                       l307 0189  
                                     l171 0508                                       l324 024D  
                                     l341 02BF                                       l165 044F  
                                     l342 02DE                                       l334 02AC  
                                     l336 02AE                                       l168 04D9  
                                     l512 0347                                       l329 0261  
                                     l291 01EE                                       l347 0059  
                                     l295 0212                                       l287 01DE  
                                     l962 0313                                       _PR2 001B  
                                     u710 033F                                       u711 033E  
                                     u800 024D                                       u801 024C  
                                     u705 0331                                       u810 0261  
                                     u811 0260                                       u740 0200  
                                     u820 02DE                                       u900 007C  
                                     u741 01FF                                       u805 0249  
                                     u821 02DD                                       u901 007B  
                                     u750 0212                                       u830 030D  
                                     u910 008F                                       u751 0211  
                                     u911 008E                                       u760 01AA  
                                     u680 0321                                       u920 009D  
                                     u745 01FC                                       u761 01A9  
                                     u825 02DA                                       u681 0320  
                                     u921 009C                                       u905 0078  
                                     u770 01BC                                       u930 00A7  
                                     u771 01BB                                       u835 0309  
                                     u931 00A4                                       u915 008B  
                                     u780 0239                                       u781 0236  
                                     u765 01A6                                       u925 0099  
                                     u950 00B7                                       u695 032A  
                                     u951 00B6                                       u960 00C5  
                                     u944 00A9                                       u961 00C4  
                                     u794 023B                                       u970 00CF  
                                     u890 006E                                       u971 00CC  
                                     u955 00B3                                       u891 006D  
                                     u965 00C1                                       u990 00DF  
                                     u991 00DE                                       u895 006A  
                                     u984 00D1                                       u995 00DB  
                         _timer1ReloadVal 0047                           _TMR2_Initialize 0450  
                                     wreg 0009                             ??_AttractFire 0020  
                                    l1500 0406                                      l1510 04D6  
                                    l1502 0408                                      l1430 04F4  
                                    l1600 0177                                      l1512 04D7  
                                    l1504 040B                                      l1432 04EE  
                                    l1610 0188                                      l1506 04D2  
                                    l1450 0415                                      l1442 040E  
                                    l1514 0505                                      l1620 0213  
                                    l1612 0195                                      l1508 04D5  
                                    l1452 0419                                      l1444 0410  
                                    l1540 0329                                      l1700 00D1  
                                    l1622 021C                                      l1614 0197  
                                    l1606 017A                                      l1454 041B  
                                    l1446 0412                                      l1542 0330  
                                    l1534 0314                                      l1710 010C  
                                    l1702 00DF                                      l1640 0250  
                                    l1632 0223                                      l1624 021E  
                                    l1616 01AB                                      l1608 0186  
                                    l1456 0423                                      l1448 0414  
                                    l1480 0457                                      l1472 0450  
                                    l1544 033F                                      l1536 031D  
                                    l1720 013C                                      l1712 010F  
                                    l1704 00ED                                      l1570 01CA  
                                    l1642 025C                                      l1634 022F  
                                    l1626 0220                                      l1618 01B7  
                                    l1650 02AF                                      l1490 03F6  
                                    l1482 045F                                      l1474 0453  
                                    l1562 043D                                      l1538 0321  
                                    l1722 014A                                      l1714 011D  
                                    l1706 00F0                                      l1580 01DB  
                                    l1572 01CB                                      l1564 01BD  
                                    l1636 023B                                      l1652 02BC  
                                    l1644 02A9                                      l1484 04FA  
                                    l1492 03F7                                      l1476 0454  
                                    l1724 014D                                      l1716 012B  
                                    l1708 00FE                                      l1590 020D  
                                    l1582 01DD                                      l1566 01C6  
                                    l1638 0240                                      l1654 02BE  
                                    l1494 03F9                                      l1486 03F0  
                                    l1478 0455                                      l1718 012E  
                                    l1584 01EB                                      l1568 01C8  
                                    l1592 015C                                      l1496 03FE  
                                    l1488 03F3                                      l1656 02DF  
                                    l1680 0058                                      l1586 01ED  
                                    l1578 01CE                                      l1594 0165  
                                    l1498 0403                                      l1658 0300  
                                    l1690 008F                                      l1682 0061  
                                    l1588 0201                                      l1596 0167  
                                    l1692 009D                                      l1684 006E  
                                    l1676 0044                                      l1598 0169  
                                    l1694 00A9                                      l1686 007C  
                                    l1678 0057                                      l1696 00B7  
                                    l1688 0081                                      l1698 00C5  
                                    u1000 00ED                                      u1001 00EC  
                                    u1010 00FE                                      u1011 00FD  
                                    u1020 010C                                      u1021 010B  
                                    u1005 00E9                                      u1030 011D  
                                    u1031 011C                                      u1015 00FA  
                                    u1040 012B                                      u1041 012A  
                                    u1025 0108                                      u1050 013C  
                                    u1107 0170                                      u1051 013B  
                                    u1035 0119                                      u1060 014A  
                                    u1117 0180                                      u1061 0149  
                                    u1045 0127                                      u1127 018F  
                                    u1055 0138                                      u1137 01B1  
                                    u1065 0146                                      u1147 0229  
                           ?_i2c_high_sda 0070                                      u1157 0256  
                                    u1077 0153                                      _LATA 010C  
                                    u1167 01D4                                      u1087 02B5  
                                    _LATC 010E                                      u1177 01E4  
                                    u1097 02C5                                      u1187 0207  
                           ?_i2c_high_scl 0070                                      i1l41 0473  
                                    i1l60 050A                                      i1l54 043C  
                                    _TMR2 001A                                      _WPUA 020C  
                                    _WPUC 020E               __size_of_EEPROM_ReadOneByte 0030  
                              _AlienCreep 003C                                _AlienLaugh 01BD  
                                    _main 0044                       __end_of_AudioUpdate 03CB  
                                    _rand 02DF                                      _seed 004B  
                                    fsr0h 0005                                      fsr1h 0007  
                                    fsr0l 0004                                      fsr1l 0006  
                                    btemp 007E                             ??_i2c_in_byte 0070  
                                    start 0028                             ??_i2c_low_sda 0070  
                           ??_i2c_low_scl 0070                ??_TMR1_SetInterruptHandler 0022  
                         __end_of_i2c_ack 04B6                            ??_AttractFlash 0020  
                           ?_i2c_out_byte 0070            __size_of_OSCILLATOR_Initialize 0008  
           __end_of_OSCILLATOR_Initialize 04DA                                     ?_main 0070  
                                   ?_rand 002C                                     _T1CON 0018  
                                   _T2CON 001C                                     i1l100 0481  
                                   i1l106 0509                                     i1l116 0504  
                                   i1l140 0026                                     i1l135 0018  
                                   i1l136 0026                                     i1l250 0264  
                                   i1l402 03CD                                     i1l260 0273  
                                   i1l252 0265                                     i1l412 04B5  
                                   i1l421 04E0                                     i1l405 03D8  
                                   i1l270 02A8                                     i1l262 027C  
                                   i1l254 0266                                     i1l430 04D1  
                                   i1l406 03EF                                     i1l263 027A  
                                   i1l255 0267                                     i1l415 049B  
                                   i1l256 026E                                     i1l248 0262  
                                   i1l424 04C8                                     i1l265 0283  
                                   i1l257 026C                                     i1l409 04BF  
                                   i1l266 0281                                     i1l418 04A8  
                                   i1l259 0275                                     i1l427 04E7  
                                   i1l275 03CA                                     i1l392 0377  
                                   i1l399 03A2                              AttractFire@i 0022  
                                   _TMR1H 0017                                     _TMR1L 0016  
                                   u60_20 0273                                     u60_21 0272  
                                   u61_20 027A                                     u61_21 0279  
                                   u62_20 0281                                     u54_20 03D1  
                                   u62_21 0280                                     u54_21 03D0  
                                   u63_20 0288                                     u55_20 03EC  
                                   u63_21 0287                                     u55_21 03EB  
                                   u72_20 0437                                     u56_20 0386  
                                   u72_21 0436                                     u56_21 0385  
                                   u64_25 028B                                     u57_20 03A1  
                                   u73_20 047C                                     u57_21 03A0  
                                   u73_21 047B                                     _TRISA 008C  
                                   u65_25 029C                                     u57_25 039D  
                                   _TRISC 008E                                     u58_20 0468  
                                   u66_20 03A8                                     u58_21 0467  
                                   u66_21 03A7                                     u59_20 026C  
                                   u67_20 03C5                                     u59_21 026B  
                                   u67_21 03C4                                     u67_25 03C1  
                                   u84_20 000A                                     u84_21 0009  
                                   u85_20 000F                                     u85_21 000E  
                                   u86_20 0014                                     u86_21 0013  
                                   u87_20 001D                                     u87_21 001C  
                                   u88_20 0022                                     u88_21 0021  
                                   _Audio 007C                       ___lmul@multiplicand 0024  
                        __end_of_TMR1_ISR 043D                          __end_of_TMR2_ISR 0482  
                          _WDT_Initialize 0505                            ??_i2c_high_sda 0070  
                          ??_i2c_high_scl 0070                   __end_of_TMR1_Initialize 0427  
                                   pclath 000A                                     status 0003  
                                   wtemp0 007E                       __end_of_AttractFire 01BD  
                         _TMR1_WriteTimer 0463                          ??_DAC_Initialize 0020  
                         __initialization 002A                              __end_of_main 015C  
                            __end_of_rand 0314                            ??_i2c_out_byte 0070  
                         ??_AttractAbduct 0020                       __end_of_i2c_in_byte 03A3  
                        __end_of_i2c_nack 04C0                          __end_of_i2c_stop 049C  
                 __end_of_TMR2_Initialize 0463               ?_INTERRUPT_InterruptManager 0070  
                     __end_of_i2c_low_sda 04C9                       __end_of_i2c_low_scl 04D2  
                _TMR2_SetInterruptHandler 04EE                                    ??_main 0032  
                                  ??_rand 002E                               _AudioActive 007B  
                  __end_of_WDT_Initialize 0509                               _AudioUpdate 03A3  
                            i2c_in_byte@n 0071                                    _ANSELA 018C  
                                  _ANSELC 018E                                    _BORCON 0116  
                                  _T1GCON 0019                   TMR1_WriteTimer@timerVal 0070  
                                  i1l1400 0379                                    i1l1410 0381  
                                  i1l1402 037C                                    i1l1420 0394  
                                  i1l1412 0386                                    i1l1422 03A1  
                                  i1l1414 0389                                    i1l1520 0299  
                                  i1l1360 04DA                                    i1l1416 038D  
                                  i1l1408 037E                                    _ODCONA 028C  
                                  i1l1434 0501                                    i1l1362 04DC  
                                  i1l1370 04CD                                    i1l1426 04A9  
                                  i1l1418 0390                                    i1l1530 03C5  
                                  i1l1522 03A3                                    _ODCONC 028E  
                                  i1l1516 0288                                    i1l1460 0468  
                                  i1l1364 04E1                                    i1l1372 04C0  
                                  i1l1428 048F                                    i1l1436 0348  
                                  i1l1532 03C6                                    i1l1524 03A8  
                                  i1l1518 0297                                    i1l1470 0471  
                                  i1l1462 0469                                    i1l1550 0429  
                                  i1l1366 04E3                                    i1l1374 04C4  
                                  i1l1390 03E2                                    i1l1438 0376  
                                  i1l1526 03B6                                    u120_27 04CE  
                                  i1l1464 046B                                    i1l1552 0430  
                                  i1l1368 04C9                                    i1l1392 03E6  
                                  i1l1384 03D1                                    i1l1376 049C  
                                  i1l1528 03BA                                    i1l1560 047C  
                                  i1l1466 046D                                    i1l1458 0463  
                                  i1l1554 0437                                    i1l1394 03EC  
                                  i1l1386 03D5                                    i1l1378 03CC  
                                  i1l1468 046F                                    i1l1548 0427  
                                  i1l1396 04B6                                    i1l1388 03DE  
                                  i1l1556 0474                                    i1l1398 0378  
                                  i1l1558 0476                                    i1l1670 0014  
                                  u121_27 04DD                                    i1l1672 001D  
                                  i1l1664 0006                                    i1l1674 0022  
                                  i1l1666 000A                                    i1l1668 000F  
                                  u122_27 04E4                                    u119_27 04C5  
                                  _INLVLA 038C                                    _INLVLC 038E  
                             ?_AlienLaugh 0070                                    _OSCCON 0099  
                           AttractFlash@i 0022                                    _WDTCON 0097  
                      __size_of_i2c_start 000D                                _RingUpdate 0262  
                               ??_i2c_ack 0070      __end_of_TMR1_DefaultInterruptHandler 050B  
   __size_of_TMR1_DefaultInterruptHandler 0001              _TMR1_DefaultInterruptHandler 050A  
                                  ___lmul 0314                           ?_WDT_Initialize 0070  
TMR2_SetInterruptHandler@InterruptHandler 0020  TMR1_SetInterruptHandler@InterruptHandler 0020  
                             _AttractFire 015C                   __end_of_TMR1_WriteTimer 0474  
                    __end_of_AttractFlash 02DF                          ?_TMR1_Initialize 0070  
                       _SYSTEM_Initialize 043D                   __end_of__initialization 0040  
                      ?_SYSTEM_Initialize 0070                               _i2c_in_byte 0378  
                  DAC_SetOutput@inputData 0070                               _i2c_low_sda 04C0  
                             _i2c_low_scl 04C9                            __pcstackCOMMON 0070  
                            __pidataBANK0 0482                       ??_SYSTEM_Initialize 0022  
                               ?_TMR1_ISR 0070                                 ?_TMR2_ISR 0070  
           ?_TMR1_DefaultInterruptHandler 0070                      __end_of_i2c_high_sda 04E1  
                    __end_of_i2c_high_scl 04E8                          ?_TMR2_Initialize 0070  
                     __size_of_AlienLaugh 0056                         __end_of_i2c_start 04A9  
                          _OPTION_REGbits 0095                    __size_of_DAC_SetOutput 0005  
               __end_of_SYSTEM_Initialize 0450                      __end_of_i2c_out_byte 03F0  
                              __pbssBANK0 0049                                 ?_i2c_nack 0070  
                            _AudioAddress 0079                                 ?_i2c_stop 0070  
                             ?_RingUpdate 0070                                __pmaintext 0044  
                                 ?___lmul 0020                                ??_TMR1_ISR 0073  
                              ??_TMR2_ISR 0079                                __pintentry 0004  
                          ___lmul@product 0028                            AttractAbduct@i 0022  
                                 _OSCSTAT 009A                                   _OSCTUNE 0098  
                                 _SLRCONA 030C                                   _SLRCONC 030E  
              __end_of_EEPROM_ReadOneByte 0378                          ?_TMR1_WriteTimer 0070  
                             _RingSetting 0040                                ??_i2c_nack 0070  
                              ??_i2c_stop 0070                                   _i2c_ack 04A9  
                           _DAC_SetOutput 0500                ??_TMR2_SetInterruptHandler 0022  
                         __size_of___lmul 0034                                   __ptext1 02DF  
                                 __ptext2 0314                                   __ptext3 043D  
                                 __ptext4 0505                                   __ptext5 0450  
                                 __ptext6 04EE                                   __ptext7 040E  
                                 __ptext8 04F4                                   __ptext9 03F0  
          ??_TMR1_DefaultInterruptHandler 0070                                 _T1CONbits 0018  
                   _OSCILLATOR_Initialize 04D2                                 _T2CONbits 001C  
                     __size_of_RingUpdate 0047                     __size_of_AttractFlash 0036  
       __size_of_TMR1_SetInterruptHandler 0006                  ??_PIN_MANAGER_Initialize 0020  
               ?_TMR1_SetInterruptHandler 0020                              ?_AudioUpdate 0070  
              __size_of_SYSTEM_Initialize 0013                      end_of_initialization 0040  
                            ??_AlienLaugh 0020                                   init_ram 04E8  
                                 initloop 04E9                             i2c_out_byte@n 0072  
                          ?_DAC_SetOutput 0070                     __size_of_i2c_high_sda 0007  
                   __size_of_i2c_high_scl 0007                              _AttractFlash 02A9  
                       i2c_in_byte@i_byte 0073                     __end_of_AttractAbduct 0262  
                        ??_WDT_Initialize 0020                                 _PORTCbits 000E  
                      __end_of_AlienLaugh 0213                     __size_of_i2c_out_byte 0025  
                               _TRISCbits 008E                              ?_AttractFire 0070  
                            _i2c_high_sda 04DA                              _i2c_high_scl 04E1  
                            ?_i2c_in_byte 0070                              ?_i2c_low_sda 0070  
                            ?_i2c_low_scl 0070      __end_of_TMR2_DefaultInterruptHandler 050A  
   __size_of_TMR2_DefaultInterruptHandler 0001              _TMR2_DefaultInterruptHandler 0509  
                          __end_of___lmul 0348                              _i2c_out_byte 03CB  
                       __size_of_TMR1_ISR 0016                         __size_of_TMR2_ISR 000E  
                         _AudioEndAddress 0049                    ?_OSCILLATOR_Initialize 0070  
                 __size_of_DAC_Initialize 0006                       start_initialization 002A  
         __size_of_PIN_MANAGER_Initialize 001E                                 _i2c_start 049C  
                               _RapidFire 0038                           ??_DAC_SetOutput 0070  
                            ??_RingUpdate 0070                         __size_of_i2c_nack 000A  
                       __size_of_i2c_stop 000D                  __size_of_TMR1_Initialize 0019  
                                ??___lmul 0028                        i2c_out_byte@o_byte 0071  
                             __pdataBANK0 0034             ?_TMR2_DefaultInterruptHandler 0070  
                             __pbssCOMMON 0079                                 ___latbits 0002  
                      __end_of_RingUpdate 02A9                             __pcstackBANK0 0020  
                __size_of_TMR2_Initialize 0013                                ?_i2c_start 0070  
                    __size_of_AudioUpdate 0028                                  ?_i2c_ack 0070  
                               __pnvBANK0 0041                        _EEPROM_ReadOneByte 0348  
                  _PIN_MANAGER_Initialize 03F0          __end_of_TMR1_SetInterruptHandler 04FA  
                     ?_EEPROM_ReadOneByte 0074                                  _DAC1CON0 0118  
                                _DAC1CON1 0119              ??_INTERRUPT_InterruptManager 0079  
                    ??_EEPROM_ReadOneByte 0076                      __size_of_AttractFire 0061  
                                _LATAbits 010C                                  _LATCbits 010E  
                                _PIE1bits 0091                  __size_of_TMR1_WriteTimer 0011  
     __size_of_INTERRUPT_InterruptManager 0024                                  _PIR1bits 0011  
                    __size_of_i2c_in_byte 002B                                  _TMR1_ISR 0427  
                                _TMR2_ISR 0474                      __size_of_i2c_low_sda 0009  
                    __size_of_i2c_low_scl 0009                            _AlienAbduction 0034  
                       ??_TMR1_Initialize 0022                            _DAC_Initialize 04FA  
          ??_TMR2_DefaultInterruptHandler 0070         __size_of_TMR2_SetInterruptHandler 0006  
               ?_TMR2_SetInterruptHandler 0020                               AlienLaugh@i 0022  
                             ??_i2c_start 0070                         ___lmul@multiplier 0020  
                                _i2c_nack 04B6                                  _i2c_stop 048F  
                       ??_TMR2_Initialize 0022                          __size_of_i2c_ack 000D  
                 ??_OSCILLATOR_Initialize 0020                    __end_of_DAC_Initialize 0500  
                _TMR1_SetInterruptHandler 04F4                     _TMR1_InterruptHandler 0045  
                                __ptext10 04D2                                  __ptext11 04FA  
                                __ptext20 0348                                  __ptext12 02A9  
                                __ptext21 048F                                  __ptext13 015C  
                              _T1GCONbits 0019                                  __ptext30 04E1  
                                __ptext22 049C                                  __ptext14 0213  
                                __ptext31 0500                                  __ptext23 03CB  
                                __ptext15 01BD                                  __ptext32 0427  
                                __ptext24 04B6                                  __ptext33 0463  
                                __ptext25 0378                                  __ptext17 0474  
                                __ptext34 0262                                  __ptext26 04A9  
                                __ptext18 03A3                                  __ptext35 050A  
                                __ptext27 04C0                                  __ptext19 0509  
                                __ptext28 04C9                                  __ptext29 04DA  
                           __size_of_main 0118                    __size_of_AttractAbduct 004F  
                           __size_of_rand 0035                                  int$flags 007E  
      __end_of_INTERRUPT_InterruptManager 0028                _INTERRUPT_InterruptManager 0004  
                         ?_DAC_Initialize 0070                         ??_TMR1_WriteTimer 0072  
                              _INTCONbits 000B                   __size_of_WDT_Initialize 0004  
                                intlevel1 0000                   ?_PIN_MANAGER_Initialize 0070  
          EEPROM_ReadOneByte@AudioAddress 0074                     __end_of_DAC_SetOutput 0505  
                     EEPROM_ReadOneByte@y 0077                             _AttractAbduct 0213  
                           ??_AudioUpdate 0078            __end_of_PIN_MANAGER_Initialize 040E  
                   _TMR2_InterruptHandler 0043                           _TMR1_Initialize 040E  
